
.//Obj/W806.elf:     file format elf32-csky-little


Disassembly of section .text:

08010400 <__Vectors>:
 8010400:	00 05 01 08 d0 05 01 08 d0 05 01 08 d0 05 01 08     ................
 8010410:	d0 05 01 08 d0 05 01 08 d0 05 01 08 d0 05 01 08     ................
 8010420:	d0 05 01 08 d0 05 01 08 d0 05 01 08 d0 05 01 08     ................
 8010430:	d0 05 01 08 d0 05 01 08 d0 05 01 08 d0 05 01 08     ................
 8010440:	d0 05 01 08 d0 05 01 08 d0 05 01 08 d0 05 01 08     ................
 8010450:	d0 05 01 08 d0 05 01 08 18 06 01 08 d0 05 01 08     ................
 8010460:	d0 05 01 08 d0 05 01 08 d0 05 01 08 d0 05 01 08     ................
 8010470:	d0 05 01 08 d0 05 01 08 d0 05 01 08 d0 05 01 08     ................
 8010480:	d0 05 01 08 d0 05 01 08 d0 05 01 08 d0 05 01 08     ................
 8010490:	d0 05 01 08 d0 05 01 08 d0 05 01 08 d0 05 01 08     ................
 80104a0:	d0 05 01 08 d0 05 01 08 d0 05 01 08 ec 23 01 08     .............#..
 80104b0:	d0 05 01 08 d0 05 01 08 4c 23 01 08 6c 23 01 08     ........L#..l#..
 80104c0:	d0 05 01 08 d0 05 01 08 d0 05 01 08 d0 05 01 08     ................
 80104d0:	d0 05 01 08 d0 05 01 08 d0 05 01 08 d0 05 01 08     ................
 80104e0:	d0 05 01 08 18 23 01 08 d0 05 01 08 d0 05 01 08     .....#..........
 80104f0:	d0 05 01 08 d0 05 01 08 ac 23 01 08 d0 05 01 08     .........#......

08010500 <Reset_Handler>:
    .align  2
    .globl  Reset_Handler
    .type   Reset_Handler, %function
Reset_Handler:
#ifdef CONFIG_KERNEL_NONE
    lrw     r0, 0xe0000200
 8010500:	1019      	lrw      	r0, 0xe0000200	// 8010564 <__exit+0x4>
#else
    lrw     r0, 0x80000200
    mtcr    r0, psr
#endif
    mtcr    r0, psr
 8010502:	c0006420 	mtcr      	r0, cr<0, 0>

    lrw     r0, g_top_irqstack
 8010506:	1019      	lrw      	r0, 0x2000197c	// 8010568 <__exit+0x8>
    mov     sp, r0
 8010508:	6f83      	mov      	r14, r0

/*
 *	move __Vectors to irq_vectors
 */
    lrw     r1, __Vectors
 801050a:	1039      	lrw      	r1, 0x8010400	// 801056c <__exit+0xc>
    lrw     r2, __vdata_start__
 801050c:	1059      	lrw      	r2, 0x20000000	// 8010570 <__exit+0x10>
    lrw     r3, __vdata_end__
 801050e:	107a      	lrw      	r3, 0x20000100	// 8010574 <__exit+0x14>

    subu    r3, r2
 8010510:	60ca      	subu      	r3, r2
    cmpnei  r3, 0
 8010512:	3b40      	cmpnei      	r3, 0
    bf      .L_loopv0_done
 8010514:	0c08      	bf      	0x8010524	// 8010524 <Reset_Handler+0x24>

.L_loopv0:
    ldw     r0, (r1, 0)
 8010516:	9100      	ld.w      	r0, (r1, 0x0)
    stw     r0, (r2, 0)
 8010518:	b200      	st.w      	r0, (r2, 0x0)
    addi    r1, 4
 801051a:	2103      	addi      	r1, 4
    addi    r2, 4
 801051c:	2203      	addi      	r2, 4
    subi    r3, 4
 801051e:	2b03      	subi      	r3, 4
    cmpnei  r3, 0
 8010520:	3b40      	cmpnei      	r3, 0
    bt      .L_loopv0
 8010522:	0bfa      	bt      	0x8010516	// 8010516 <Reset_Handler+0x16>
 *    __data_start__: VMA of start of the section to copy to
 *    __data_end__: VMA of end of the section to copy to
 *
 *  All addresses must be aligned to 4 bytes boundary.
 */
    lrw     r1, __erodata
 8010524:	1035      	lrw      	r1, 0x801576c	// 8010578 <__exit+0x18>
    lrw     r2, __data_start__
 8010526:	1056      	lrw      	r2, 0x20000100	// 801057c <__exit+0x1c>
    lrw     r3, __data_end__
 8010528:	1076      	lrw      	r3, 0x2000097c	// 8010580 <__exit+0x20>

    subu    r3, r2
 801052a:	60ca      	subu      	r3, r2
    cmpnei  r3, 0
 801052c:	3b40      	cmpnei      	r3, 0
    bf      .L_loop0_done
 801052e:	0c08      	bf      	0x801053e	// 801053e <Reset_Handler+0x3e>

.L_loop0:
    ldw     r0, (r1, 0)
 8010530:	9100      	ld.w      	r0, (r1, 0x0)
    stw     r0, (r2, 0)
 8010532:	b200      	st.w      	r0, (r2, 0x0)
    addi    r1, 4
 8010534:	2103      	addi      	r1, 4
    addi    r2, 4
 8010536:	2203      	addi      	r2, 4
    subi    r3, 4
 8010538:	2b03      	subi      	r3, 4
    cmpnei  r3, 0
 801053a:	3b40      	cmpnei      	r3, 0
    bt      .L_loop0
 801053c:	0bfa      	bt      	0x8010530	// 8010530 <Reset_Handler+0x30>
 *    __bss_end__: end of the BSS section.
 *
 *  Both addresses must be aligned to 4 bytes boundary.
 */
 #if 1
    lrw     r1, __bss_start__
 801053e:	1032      	lrw      	r1, 0x2000097c	// 8010584 <__exit+0x24>
    lrw     r2, __bss_end__
 8010540:	1052      	lrw      	r2, 0x20003310	// 8010588 <__exit+0x28>

    movi    r0, 0
 8010542:	3000      	movi      	r0, 0

    subu    r2, r1
 8010544:	6086      	subu      	r2, r1
    cmpnei  r2, 0
 8010546:	3a40      	cmpnei      	r2, 0
    bf      .L_loop1_done
 8010548:	0c06      	bf      	0x8010554	// 8010554 <Reset_Handler+0x54>

.L_loop1:
    stw     r0, (r1, 0)
 801054a:	b100      	st.w      	r0, (r1, 0x0)
    addi    r1, 4
 801054c:	2103      	addi      	r1, 4
    subi    r2, 4
 801054e:	2a03      	subi      	r2, 4
    cmpnei  r2, 0
 8010550:	3a40      	cmpnei      	r2, 0
    bt      .L_loop1
 8010552:	0bfc      	bt      	0x801054a	// 801054a <Reset_Handler+0x4a>
.L_loop1_done:
#endif

#ifndef __NO_SYSTEM_INIT
    jbsr    SystemInit
 8010554:	e0001972 	bsr      	0x8013838	// 8013838 <SystemInit>
#endif

#ifndef __NO_BOARD_INIT
    jbsr    board_init
 8010558:	e0001958 	bsr      	0x8013808	// 8013808 <board_init>
#endif

    jbsr    main
 801055c:	e0000d3a 	bsr      	0x8011fd0	// 8011fd0 <main>

08010560 <__exit>:
    .size   Reset_Handler, . - Reset_Handler

__exit:
    br      __exit
 8010560:	0400      	br      	0x8010560	// 8010560 <__exit>
 8010562:	0000      	.short	0x0000
 8010564:	e0000200 	.long	0xe0000200
 8010568:	2000197c 	.long	0x2000197c
 801056c:	08010400 	.long	0x08010400
 8010570:	20000000 	.long	0x20000000
 8010574:	20000100 	.long	0x20000100
 8010578:	0801576c 	.long	0x0801576c
 801057c:	20000100 	.long	0x20000100
 8010580:	2000097c 	.long	0x2000097c
 8010584:	2000097c 	.long	0x2000097c
 8010588:	20003310 	.long	0x20003310

0801058c <trap>:
 * default exception handler
 ******************************************************************************/
    .global trap
    .type   trap, %function
trap:
    psrset  ee
 801058c:	c1007420 	psrset      	ee

    subi    sp, 4
 8010590:	1421      	subi      	r14, r14, 4
    stw     r13, (sp)
 8010592:	ddae2000 	st.w      	r13, (r14, 0x0)
    addi    sp, 4
 8010596:	1401      	addi      	r14, r14, 4

    lrw     r13, g_trap_sp
 8010598:	ea8d000f 	lrw      	r13, 0x20001b7c	// 80105d4 <BLE_IRQHandler+0x4>
    stw     sp, (r13)
 801059c:	ddcd2000 	st.w      	r14, (r13, 0x0)

    lrw     sp, g_top_trapstack
 80105a0:	ea8e000e 	lrw      	r14, 0x20001b7c	// 80105d8 <BLE_IRQHandler+0x8>

    subi    sp, 72
 80105a4:	1432      	subi      	r14, r14, 72
    stm     r0-r12, (sp)
 80105a6:	d40e1c2c 	stm      	r0-r12, (r14)

    lrw     r0, g_trap_sp
 80105aa:	100b      	lrw      	r0, 0x20001b7c	// 80105d4 <BLE_IRQHandler+0x4>
    ldw     r0, (r0)
 80105ac:	9000      	ld.w      	r0, (r0, 0x0)

    stw     r0, (sp, 56) /* save r14 */
 80105ae:	b80e      	st.w      	r0, (r14, 0x38)

    subi    r0, 4
 80105b0:	2803      	subi      	r0, 4
    ldw     r13, (r0)
 80105b2:	d9a02000 	ld.w      	r13, (r0, 0x0)
    stw     r13, (sp, 52)
 80105b6:	ddae200d 	st.w      	r13, (r14, 0x34)

    stw     r15, (sp, 60)
 80105ba:	ddee200f 	st.w      	r15, (r14, 0x3c)
    mfcr    r0, epsr
 80105be:	c0026020 	mfcr      	r0, cr<2, 0>
    stw     r0, (sp, 64)
 80105c2:	b810      	st.w      	r0, (r14, 0x40)
    mfcr    r0, epc
 80105c4:	c0046020 	mfcr      	r0, cr<4, 0>
    stw     r0, (sp, 68)
 80105c8:	b811      	st.w      	r0, (r14, 0x44)

    mov     r0, sp
 80105ca:	6c3b      	mov      	r0, r14

    jbsr    trap_c
 80105cc:	e000194e 	bsr      	0x8013868	// 8013868 <trap_c>

080105d0 <BLE_IRQHandler>:

    .align  2
    .weak   Default_Handler
    .type   Default_Handler, %function
Default_Handler:
    br      trap
 80105d0:	07de      	br      	0x801058c	// 801058c <trap>
 80105d2:	0000      	.short	0x0000
 80105d4:	20001b7c 	.long	0x20001b7c
 80105d8:	20001b7c 	.long	0x20001b7c

080105dc <cpu_yeild>:
 *
 ********************************************************************/
.global cpu_yeild
.type   cpu_yeild, %function
cpu_yeild:
    lrw    r0, VIC_TSPDR
 80105dc:	1106      	lrw      	r0, 0xe000ec08	// 8010674 <tspend_handler+0x5c>
    bgeni  r1, 0
 80105de:	ea010001 	movi      	r1, 1
    stw    r1, (r0)
 80105e2:	b020      	st.w      	r1, (r0, 0x0)
    rts
 80105e4:	783c      	jmp      	r15

080105e6 <vPortStartTask>:
 *
 ********************************************************************/
.global vPortStartTask
.type   vPortStartTask, %function
vPortStartTask:
    psrclr   ie
 80105e6:	c0807020 	psrclr      	ie
    lrw      r4, pxCurrentTCB
 80105ea:	1184      	lrw      	r4, 0x20002d14	// 8010678 <tspend_handler+0x60>
    ld.w     r4, (r4)
 80105ec:	9480      	ld.w      	r4, (r4, 0x0)
    ld.w     sp, (r4)
 80105ee:	d9c42000 	ld.w      	r14, (r4, 0x0)

    ldw      r0, (sp, 192)
 80105f2:	9910      	ld.w      	r0, (r14, 0xc0)
    mtcr     r0, epc
 80105f4:	c0006424 	mtcr      	r0, cr<4, 0>
    ldw      r0, (sp, 188)
 80105f8:	990f      	ld.w      	r0, (r14, 0xbc)
    mtcr     r0, epsr
 80105fa:	c0006422 	mtcr      	r0, cr<2, 0>

    ldm      r0-r13, (sp)
 80105fe:	d00e1c2d 	ldm      	r0-r13, (r14)
    ldw      r15, (sp, 56)
 8010602:	d9ee200e 	ld.w      	r15, (r14, 0x38)
    addi     sp, 60
 8010606:	140f      	addi      	r14, r14, 60
    ldm      r16-r31, (sp)
 8010608:	d20e1c2f 	ldm      	r16-r31, (r14)
    addi     sp, 64
 801060c:	1410      	addi      	r14, r14, 64
    fldms    vr0-vr15, (sp)
 801060e:	f5ee3000 	fldms      	fr0-fr15, (r14)
    addi     sp, 72
 8010612:	1412      	addi      	r14, r14, 72

    rte
 8010614:	c0004020 	rte

08010618 <tspend_handler>:
 *
 ********************************************************************/
.global tspend_handler
.type   tspend_handler, %function
tspend_handler:
    subi     sp, 196
 8010618:	1531      	subi      	r14, r14, 196
    stm      r0-r13, (sp)
 801061a:	d40e1c2d 	stm      	r0-r13, (r14)
    stw      r15, (sp, 56)
 801061e:	ddee200e 	st.w      	r15, (r14, 0x38)
    addi     r0, sp, 60
 8010622:	180f      	addi      	r0, r14, 60
    stm      r16-r31, (r0)
 8010624:	d6001c2f 	stm      	r16-r31, (r0)
    addi     r0, 64
 8010628:	203f      	addi      	r0, 64
    fstms    vr0-vr15, (r0)
 801062a:	f5e03400 	fstms      	fr0-fr15, (r0)
    mfcr     r1, epsr
 801062e:	c0026021 	mfcr      	r1, cr<2, 0>
    stw      r1, (r0, 64)
 8010632:	b030      	st.w      	r1, (r0, 0x40)
    mfcr     r1, epc
 8010634:	c0046021 	mfcr      	r1, cr<4, 0>
    stw      r1, (r0, 68)
 8010638:	b031      	st.w      	r1, (r0, 0x44)

    lrw      r2, pxCurrentTCB
 801063a:	1050      	lrw      	r2, 0x20002d14	// 8010678 <tspend_handler+0x60>
    ld.w     r3, (r2)
 801063c:	9260      	ld.w      	r3, (r2, 0x0)
    st.w     sp, (r3)
 801063e:	ddc32000 	st.w      	r14, (r3, 0x0)

    jbsr     vTaskSwitchContext
 8010642:	e0002581 	bsr      	0x8015144	// 8015144 <vTaskSwitchContext>

    lrw      r4, pxCurrentTCB
 8010646:	108d      	lrw      	r4, 0x20002d14	// 8010678 <tspend_handler+0x60>
    ld.w     r4, (r4)
 8010648:	9480      	ld.w      	r4, (r4, 0x0)
    ld.w     sp, (r4)
 801064a:	d9c42000 	ld.w      	r14, (r4, 0x0)

    ldw      r0, (sp, 192)
 801064e:	9910      	ld.w      	r0, (r14, 0xc0)
    mtcr     r0, epc
 8010650:	c0006424 	mtcr      	r0, cr<4, 0>
    ldw      r0, (sp, 188)
 8010654:	990f      	ld.w      	r0, (r14, 0xbc)
    mtcr     r0, epsr
 8010656:	c0006422 	mtcr      	r0, cr<2, 0>

    ldm      r0-r13, (sp)
 801065a:	d00e1c2d 	ldm      	r0-r13, (r14)
    ldw      r15, (sp, 56)
 801065e:	d9ee200e 	ld.w      	r15, (r14, 0x38)
    addi     sp, 60
 8010662:	140f      	addi      	r14, r14, 60
    ldm      r16-r31, (sp)
 8010664:	d20e1c2f 	ldm      	r16-r31, (r14)
    addi     sp, 64
 8010668:	1410      	addi      	r14, r14, 64
    fldms    vr0-vr15, (sp)
 801066a:	f5ee3000 	fldms      	fr0-fr15, (r14)
    addi     sp, 72
 801066e:	1412      	addi      	r14, r14, 72

    rte
 8010670:	c0004020 	rte
 8010674:	e000ec08 	.long	0xe000ec08
 8010678:	20002d14 	.long	0x20002d14

0801067c <__fixunsdfsi>:
 801067c:	14d2      	push      	r4-r5, r15
 801067e:	3200      	movi      	r2, 0
 8010680:	ea2341e0 	movih      	r3, 16864
 8010684:	6d03      	mov      	r4, r0
 8010686:	6d47      	mov      	r5, r1
 8010688:	e00006b8 	bsr      	0x80113f8	// 80113f8 <__gedf2>
 801068c:	e9a00007 	bhsz      	r0, 0x801069a	// 801069a <__fixunsdfsi+0x1e>
 8010690:	6c13      	mov      	r0, r4
 8010692:	6c57      	mov      	r1, r5
 8010694:	e0000722 	bsr      	0x80114d8	// 80114d8 <__fixdfsi>
 8010698:	1492      	pop      	r4-r5, r15
 801069a:	3200      	movi      	r2, 0
 801069c:	ea2341e0 	movih      	r3, 16864
 80106a0:	6c13      	mov      	r0, r4
 80106a2:	6c57      	mov      	r1, r5
 80106a4:	e00004c4 	bsr      	0x801102c	// 801102c <__subdf3>
 80106a8:	e0000718 	bsr      	0x80114d8	// 80114d8 <__fixdfsi>
 80106ac:	ea238000 	movih      	r3, 32768
 80106b0:	600c      	addu      	r0, r3
 80106b2:	1492      	pop      	r4-r5, r15

080106b4 <__udivdi3>:
 80106b4:	14c5      	push      	r4-r8
 80106b6:	6f4b      	mov      	r13, r2
 80106b8:	6d4f      	mov      	r5, r3
 80106ba:	6d03      	mov      	r4, r0
 80106bc:	6f07      	mov      	r12, r1
 80106be:	e9230054 	bnez      	r3, 0x8010766	// 8010766 <__udivdi3+0xb2>
 80106c2:	6484      	cmphs      	r1, r2
 80106c4:	0870      	bt      	0x80107a4	// 80107a4 <__udivdi3+0xf0>
 80106c6:	eb02ffff 	cmphsi      	r2, 65536
 80106ca:	0cc4      	bf      	0x8010852	// 8010852 <__udivdi3+0x19e>
 80106cc:	c6e05023 	bmaski      	r3, 24
 80106d0:	648c      	cmphs      	r3, r2
 80106d2:	3518      	movi      	r5, 24
 80106d4:	3310      	movi      	r3, 16
 80106d6:	c4a30c40 	inct      	r5, r3, 0
 80106da:	01dc      	lrw      	r6, 0x80151f4	// 80109e4 <__udivdi3+0x330>
 80106dc:	c4a24043 	lsr      	r3, r2, r5
 80106e0:	d0660023 	ldr.b      	r3, (r6, r3 << 0)
 80106e4:	614c      	addu      	r5, r3
 80106e6:	3320      	movi      	r3, 32
 80106e8:	60d6      	subu      	r3, r5
 80106ea:	e903000c 	bez      	r3, 0x8010702	// 8010702 <__udivdi3+0x4e>
 80106ee:	c462402d 	lsl      	r13, r2, r3
 80106f2:	c4a04045 	lsr      	r5, r0, r5
 80106f6:	c4614022 	lsl      	r2, r1, r3
 80106fa:	c445242c 	or      	r12, r5, r2
 80106fe:	c4604024 	lsl      	r4, r0, r3
 8010702:	c60d4841 	lsri      	r1, r13, 16
 8010706:	c42c8022 	divu      	r2, r12, r1
 801070a:	c4228423 	mult      	r3, r2, r1
 801070e:	630e      	subu      	r12, r3
 8010710:	c60c4823 	lsli      	r3, r12, 16
 8010714:	c40d55e5 	zext      	r5, r13, 15, 0
 8010718:	c604484c 	lsri      	r12, r4, 16
 801071c:	c4458420 	mult      	r0, r5, r2
 8010720:	6f0c      	or      	r12, r3
 8010722:	6430      	cmphs      	r12, r0
 8010724:	0808      	bt      	0x8010734	// 8010734 <__udivdi3+0x80>
 8010726:	6334      	addu      	r12, r13
 8010728:	6770      	cmphs      	r12, r13
 801072a:	5a63      	subi      	r3, r2, 1
 801072c:	0c03      	bf      	0x8010732	// 8010732 <__udivdi3+0x7e>
 801072e:	6430      	cmphs      	r12, r0
 8010730:	0d56      	bf      	0x80109dc	// 80109dc <__udivdi3+0x328>
 8010732:	6c8f      	mov      	r2, r3
 8010734:	6302      	subu      	r12, r0
 8010736:	c42c8020 	divu      	r0, r12, r1
 801073a:	7c40      	mult      	r1, r0
 801073c:	6306      	subu      	r12, r1
 801073e:	c60c482c 	lsli      	r12, r12, 16
 8010742:	c40455e4 	zext      	r4, r4, 15, 0
 8010746:	7d40      	mult      	r5, r0
 8010748:	6d30      	or      	r4, r12
 801074a:	6550      	cmphs      	r4, r5
 801074c:	6c43      	mov      	r1, r0
 801074e:	0808      	bt      	0x801075e	// 801075e <__udivdi3+0xaa>
 8010750:	6134      	addu      	r4, r13
 8010752:	6750      	cmphs      	r4, r13
 8010754:	5863      	subi      	r3, r0, 1
 8010756:	0d21      	bf      	0x8010998	// 8010998 <__udivdi3+0x2e4>
 8010758:	6550      	cmphs      	r4, r5
 801075a:	091f      	bt      	0x8010998	// 8010998 <__udivdi3+0x2e4>
 801075c:	2901      	subi      	r1, 2
 801075e:	4210      	lsli      	r0, r2, 16
 8010760:	6c04      	or      	r0, r1
 8010762:	3100      	movi      	r1, 0
 8010764:	1485      	pop      	r4-r8
 8010766:	64c4      	cmphs      	r1, r3
 8010768:	0c6b      	bf      	0x801083e	// 801083e <__udivdi3+0x18a>
 801076a:	eb03ffff 	cmphsi      	r3, 65536
 801076e:	0c6b      	bf      	0x8010844	// 8010844 <__udivdi3+0x190>
 8010770:	c6e0502c 	bmaski      	r12, 24
 8010774:	64f0      	cmphs      	r12, r3
 8010776:	ea0d0018 	movi      	r13, 24
 801077a:	ea0c0010 	movi      	r12, 16
 801077e:	c58d0c20 	incf      	r12, r13, 0
 8010782:	0386      	lrw      	r4, 0x80151f4	// 80109e4 <__udivdi3+0x330>
 8010784:	c583404d 	lsr      	r13, r3, r12
 8010788:	d1a4002d 	ldr.b      	r13, (r4, r13 << 0)
 801078c:	6370      	addu      	r13, r12
 801078e:	3520      	movi      	r5, 32
 8010790:	6176      	subu      	r5, r13
 8010792:	e925006c 	bnez      	r5, 0x801086a	// 801086a <__udivdi3+0x1b6>
 8010796:	644c      	cmphs      	r3, r1
 8010798:	0d0d      	bf      	0x80109b2	// 80109b2 <__udivdi3+0x2fe>
 801079a:	6480      	cmphs      	r0, r2
 801079c:	c4000500 	mvc      	r0
 80107a0:	6c57      	mov      	r1, r5
 80107a2:	1485      	pop      	r4-r8
 80107a4:	e9220006 	bnez      	r2, 0x80107b0	// 80107b0 <__udivdi3+0xfc>
 80107a8:	ea0d0001 	movi      	r13, 1
 80107ac:	c44d802d 	divu      	r13, r13, r2
 80107b0:	eb0dffff 	cmphsi      	r13, 65536
 80107b4:	0c55      	bf      	0x801085e	// 801085e <__udivdi3+0x1aa>
 80107b6:	c6e05023 	bmaski      	r3, 24
 80107ba:	674c      	cmphs      	r3, r13
 80107bc:	3518      	movi      	r5, 24
 80107be:	3310      	movi      	r3, 16
 80107c0:	c4a30c40 	inct      	r5, r3, 0
 80107c4:	0357      	lrw      	r2, 0x80151f4	// 80109e4 <__udivdi3+0x330>
 80107c6:	c4ad4043 	lsr      	r3, r13, r5
 80107ca:	d0620023 	ldr.b      	r3, (r2, r3 << 0)
 80107ce:	614c      	addu      	r5, r3
 80107d0:	3620      	movi      	r6, 32
 80107d2:	6196      	subu      	r6, r5
 80107d4:	e926009f 	bnez      	r6, 0x8010912	// 8010912 <__udivdi3+0x25e>
 80107d8:	c5a10082 	subu      	r2, r1, r13
 80107dc:	c60d4846 	lsri      	r6, r13, 16
 80107e0:	c40d55e5 	zext      	r5, r13, 15, 0
 80107e4:	3101      	movi      	r1, 1
 80107e6:	c4c2802c 	divu      	r12, r2, r6
 80107ea:	c4cc8423 	mult      	r3, r12, r6
 80107ee:	608e      	subu      	r2, r3
 80107f0:	4250      	lsli      	r2, r2, 16
 80107f2:	4c70      	lsri      	r3, r4, 16
 80107f4:	c4ac8420 	mult      	r0, r12, r5
 80107f8:	6cc8      	or      	r3, r2
 80107fa:	640c      	cmphs      	r3, r0
 80107fc:	0809      	bt      	0x801080e	// 801080e <__udivdi3+0x15a>
 80107fe:	60f4      	addu      	r3, r13
 8010800:	674c      	cmphs      	r3, r13
 8010802:	e44c1000 	subi      	r2, r12, 1
 8010806:	0c03      	bf      	0x801080c	// 801080c <__udivdi3+0x158>
 8010808:	640c      	cmphs      	r3, r0
 801080a:	0ce5      	bf      	0x80109d4	// 80109d4 <__udivdi3+0x320>
 801080c:	6f0b      	mov      	r12, r2
 801080e:	60c2      	subu      	r3, r0
 8010810:	c4c38020 	divu      	r0, r3, r6
 8010814:	7d80      	mult      	r6, r0
 8010816:	60da      	subu      	r3, r6
 8010818:	4370      	lsli      	r3, r3, 16
 801081a:	c40455e4 	zext      	r4, r4, 15, 0
 801081e:	7d40      	mult      	r5, r0
 8010820:	6cd0      	or      	r3, r4
 8010822:	654c      	cmphs      	r3, r5
 8010824:	6c83      	mov      	r2, r0
 8010826:	0808      	bt      	0x8010836	// 8010836 <__udivdi3+0x182>
 8010828:	60f4      	addu      	r3, r13
 801082a:	674c      	cmphs      	r3, r13
 801082c:	2800      	subi      	r0, 1
 801082e:	0cb3      	bf      	0x8010994	// 8010994 <__udivdi3+0x2e0>
 8010830:	654c      	cmphs      	r3, r5
 8010832:	08b1      	bt      	0x8010994	// 8010994 <__udivdi3+0x2e0>
 8010834:	2a01      	subi      	r2, 2
 8010836:	c60c4820 	lsli      	r0, r12, 16
 801083a:	6c08      	or      	r0, r2
 801083c:	1485      	pop      	r4-r8
 801083e:	3100      	movi      	r1, 0
 8010840:	6c07      	mov      	r0, r1
 8010842:	1485      	pop      	r4-r8
 8010844:	eb0300ff 	cmphsi      	r3, 256
 8010848:	c400050d 	mvc      	r13
 801084c:	c46d482c 	lsli      	r12, r13, 3
 8010850:	0799      	br      	0x8010782	// 8010782 <__udivdi3+0xce>
 8010852:	eb0200ff 	cmphsi      	r2, 256
 8010856:	3308      	movi      	r3, 8
 8010858:	c4a30c40 	inct      	r5, r3, 0
 801085c:	073f      	br      	0x80106da	// 80106da <__udivdi3+0x26>
 801085e:	eb0d00ff 	cmphsi      	r13, 256
 8010862:	3308      	movi      	r3, 8
 8010864:	c4a30c40 	inct      	r5, r3, 0
 8010868:	07ae      	br      	0x80107c4	// 80107c4 <__udivdi3+0x110>
 801086a:	c5a24046 	lsr      	r6, r2, r13
 801086e:	70d4      	lsl      	r3, r5
 8010870:	6d8c      	or      	r6, r3
 8010872:	c5a14044 	lsr      	r4, r1, r13
 8010876:	4ef0      	lsri      	r7, r6, 16
 8010878:	c4e48023 	divu      	r3, r4, r7
 801087c:	c4a1402c 	lsl      	r12, r1, r5
 8010880:	c5a04041 	lsr      	r1, r0, r13
 8010884:	c4e3842d 	mult      	r13, r3, r7
 8010888:	6c70      	or      	r1, r12
 801088a:	6136      	subu      	r4, r13
 801088c:	c40655ec 	zext      	r12, r6, 15, 0
 8010890:	4490      	lsli      	r4, r4, 16
 8010892:	c601484d 	lsri      	r13, r1, 16
 8010896:	c46c8428 	mult      	r8, r12, r3
 801089a:	6f50      	or      	r13, r4
 801089c:	6634      	cmphs      	r13, r8
 801089e:	7094      	lsl      	r2, r5
 80108a0:	0806      	bt      	0x80108ac	// 80108ac <__udivdi3+0x1f8>
 80108a2:	6358      	addu      	r13, r6
 80108a4:	65b4      	cmphs      	r13, r6
 80108a6:	5b83      	subi      	r4, r3, 1
 80108a8:	088d      	bt      	0x80109c2	// 80109c2 <__udivdi3+0x30e>
 80108aa:	6cd3      	mov      	r3, r4
 80108ac:	6362      	subu      	r13, r8
 80108ae:	c4ed8024 	divu      	r4, r13, r7
 80108b2:	7dd0      	mult      	r7, r4
 80108b4:	635e      	subu      	r13, r7
 80108b6:	c60d482d 	lsli      	r13, r13, 16
 80108ba:	c48c8427 	mult      	r7, r12, r4
 80108be:	c40155ec 	zext      	r12, r1, 15, 0
 80108c2:	6f34      	or      	r12, r13
 80108c4:	65f0      	cmphs      	r12, r7
 80108c6:	0806      	bt      	0x80108d2	// 80108d2 <__udivdi3+0x21e>
 80108c8:	6318      	addu      	r12, r6
 80108ca:	65b0      	cmphs      	r12, r6
 80108cc:	5c23      	subi      	r1, r4, 1
 80108ce:	0875      	bt      	0x80109b8	// 80109b8 <__udivdi3+0x304>
 80108d0:	6d07      	mov      	r4, r1
 80108d2:	4370      	lsli      	r3, r3, 16
 80108d4:	6cd0      	or      	r3, r4
 80108d6:	c40355e1 	zext      	r1, r3, 15, 0
 80108da:	c40255e4 	zext      	r4, r2, 15, 0
 80108de:	c603484d 	lsri      	r13, r3, 16
 80108e2:	4a50      	lsri      	r2, r2, 16
 80108e4:	c4818426 	mult      	r6, r1, r4
 80108e8:	7d34      	mult      	r4, r13
 80108ea:	7c48      	mult      	r1, r2
 80108ec:	7f48      	mult      	r13, r2
 80108ee:	6050      	addu      	r1, r4
 80108f0:	4e50      	lsri      	r2, r6, 16
 80108f2:	6084      	addu      	r2, r1
 80108f4:	6508      	cmphs      	r2, r4
 80108f6:	631e      	subu      	r12, r7
 80108f8:	0804      	bt      	0x8010900	// 8010900 <__udivdi3+0x24c>
 80108fa:	ea210001 	movih      	r1, 1
 80108fe:	6344      	addu      	r13, r1
 8010900:	4a30      	lsri      	r1, r2, 16
 8010902:	6344      	addu      	r13, r1
 8010904:	6770      	cmphs      	r12, r13
 8010906:	0c53      	bf      	0x80109ac	// 80109ac <__udivdi3+0x2f8>
 8010908:	6772      	cmpne      	r12, r13
 801090a:	0c49      	bf      	0x801099c	// 801099c <__udivdi3+0x2e8>
 801090c:	6c0f      	mov      	r0, r3
 801090e:	3100      	movi      	r1, 0
 8010910:	1485      	pop      	r4-r8
 8010912:	7358      	lsl      	r13, r6
 8010914:	c4a1404c 	lsr      	r12, r1, r5
 8010918:	c4c14022 	lsl      	r2, r1, r6
 801091c:	c4c04024 	lsl      	r4, r0, r6
 8010920:	c60d4846 	lsri      	r6, r13, 16
 8010924:	c4a04045 	lsr      	r5, r0, r5
 8010928:	c4cc8020 	divu      	r0, r12, r6
 801092c:	c4c08421 	mult      	r1, r0, r6
 8010930:	c4452423 	or      	r3, r5, r2
 8010934:	6306      	subu      	r12, r1
 8010936:	c40d55e5 	zext      	r5, r13, 15, 0
 801093a:	c60c482c 	lsli      	r12, r12, 16
 801093e:	4b30      	lsri      	r1, r3, 16
 8010940:	c4058422 	mult      	r2, r5, r0
 8010944:	6c70      	or      	r1, r12
 8010946:	6484      	cmphs      	r1, r2
 8010948:	080a      	bt      	0x801095c	// 801095c <__udivdi3+0x2a8>
 801094a:	6074      	addu      	r1, r13
 801094c:	6744      	cmphs      	r1, r13
 801094e:	e5801000 	subi      	r12, r0, 1
 8010952:	0c3f      	bf      	0x80109d0	// 80109d0 <__udivdi3+0x31c>
 8010954:	6484      	cmphs      	r1, r2
 8010956:	083d      	bt      	0x80109d0	// 80109d0 <__udivdi3+0x31c>
 8010958:	2801      	subi      	r0, 2
 801095a:	6074      	addu      	r1, r13
 801095c:	604a      	subu      	r1, r2
 801095e:	c4c1802c 	divu      	r12, r1, r6
 8010962:	c4cc8422 	mult      	r2, r12, r6
 8010966:	5949      	subu      	r2, r1, r2
 8010968:	4250      	lsli      	r2, r2, 16
 801096a:	c40355e3 	zext      	r3, r3, 15, 0
 801096e:	c5858421 	mult      	r1, r5, r12
 8010972:	6c8c      	or      	r2, r3
 8010974:	6448      	cmphs      	r2, r1
 8010976:	080b      	bt      	0x801098c	// 801098c <__udivdi3+0x2d8>
 8010978:	60b4      	addu      	r2, r13
 801097a:	6748      	cmphs      	r2, r13
 801097c:	e46c1000 	subi      	r3, r12, 1
 8010980:	0c26      	bf      	0x80109cc	// 80109cc <__udivdi3+0x318>
 8010982:	6448      	cmphs      	r2, r1
 8010984:	0824      	bt      	0x80109cc	// 80109cc <__udivdi3+0x318>
 8010986:	e58c1001 	subi      	r12, r12, 2
 801098a:	60b4      	addu      	r2, r13
 801098c:	6086      	subu      	r2, r1
 801098e:	4030      	lsli      	r1, r0, 16
 8010990:	6c70      	or      	r1, r12
 8010992:	072a      	br      	0x80107e6	// 80107e6 <__udivdi3+0x132>
 8010994:	6c83      	mov      	r2, r0
 8010996:	0750      	br      	0x8010836	// 8010836 <__udivdi3+0x182>
 8010998:	6c4f      	mov      	r1, r3
 801099a:	06e2      	br      	0x801075e	// 801075e <__udivdi3+0xaa>
 801099c:	4250      	lsli      	r2, r2, 16
 801099e:	c40655e6 	zext      	r6, r6, 15, 0
 80109a2:	c4a04021 	lsl      	r1, r0, r5
 80109a6:	6098      	addu      	r2, r6
 80109a8:	6484      	cmphs      	r1, r2
 80109aa:	0bb1      	bt      	0x801090c	// 801090c <__udivdi3+0x258>
 80109ac:	5b03      	subi      	r0, r3, 1
 80109ae:	3100      	movi      	r1, 0
 80109b0:	1485      	pop      	r4-r8
 80109b2:	6c57      	mov      	r1, r5
 80109b4:	3001      	movi      	r0, 1
 80109b6:	1485      	pop      	r4-r8
 80109b8:	65f0      	cmphs      	r12, r7
 80109ba:	0b8b      	bt      	0x80108d0	// 80108d0 <__udivdi3+0x21c>
 80109bc:	2c01      	subi      	r4, 2
 80109be:	6318      	addu      	r12, r6
 80109c0:	0789      	br      	0x80108d2	// 80108d2 <__udivdi3+0x21e>
 80109c2:	6634      	cmphs      	r13, r8
 80109c4:	0b73      	bt      	0x80108aa	// 80108aa <__udivdi3+0x1f6>
 80109c6:	2b01      	subi      	r3, 2
 80109c8:	6358      	addu      	r13, r6
 80109ca:	0771      	br      	0x80108ac	// 80108ac <__udivdi3+0x1f8>
 80109cc:	6f0f      	mov      	r12, r3
 80109ce:	07df      	br      	0x801098c	// 801098c <__udivdi3+0x2d8>
 80109d0:	6c33      	mov      	r0, r12
 80109d2:	07c5      	br      	0x801095c	// 801095c <__udivdi3+0x2a8>
 80109d4:	e58c1001 	subi      	r12, r12, 2
 80109d8:	60f4      	addu      	r3, r13
 80109da:	071a      	br      	0x801080e	// 801080e <__udivdi3+0x15a>
 80109dc:	2a01      	subi      	r2, 2
 80109de:	6334      	addu      	r12, r13
 80109e0:	06aa      	br      	0x8010734	// 8010734 <__udivdi3+0x80>
 80109e2:	0000      	.short	0x0000
 80109e4:	080151f4 	.long	0x080151f4

080109e8 <__umoddi3>:
 80109e8:	14c6      	push      	r4-r9
 80109ea:	6d4b      	mov      	r5, r2
 80109ec:	6f4f      	mov      	r13, r3
 80109ee:	6d83      	mov      	r6, r0
 80109f0:	6f07      	mov      	r12, r1
 80109f2:	e923004a 	bnez      	r3, 0x8010a86	// 8010a86 <__umoddi3+0x9e>
 80109f6:	6484      	cmphs      	r1, r2
 80109f8:	086b      	bt      	0x8010ace	// 8010ace <__umoddi3+0xe6>
 80109fa:	eb02ffff 	cmphsi      	r2, 65536
 80109fe:	0cc0      	bf      	0x8010b7e	// 8010b7e <__umoddi3+0x196>
 8010a00:	c6e05023 	bmaski      	r3, 24
 8010a04:	648c      	cmphs      	r3, r2
 8010a06:	ea0d0018 	movi      	r13, 24
 8010a0a:	3310      	movi      	r3, 16
 8010a0c:	c5a30c40 	inct      	r13, r3, 0
 8010a10:	0281      	lrw      	r4, 0x80151f4	// 8010d08 <__umoddi3+0x320>
 8010a12:	c5a24043 	lsr      	r3, r2, r13
 8010a16:	d0640023 	ldr.b      	r3, (r4, r3 << 0)
 8010a1a:	634c      	addu      	r13, r3
 8010a1c:	3420      	movi      	r4, 32
 8010a1e:	6136      	subu      	r4, r13
 8010a20:	e904000b 	bez      	r4, 0x8010a36	// 8010a36 <__umoddi3+0x4e>
 8010a24:	7050      	lsl      	r1, r4
 8010a26:	c5a0404d 	lsr      	r13, r0, r13
 8010a2a:	c4824025 	lsl      	r5, r2, r4
 8010a2e:	c42d242c 	or      	r12, r13, r1
 8010a32:	c4804026 	lsl      	r6, r0, r4
 8010a36:	c605484d 	lsri      	r13, r5, 16
 8010a3a:	c5ac8021 	divu      	r1, r12, r13
 8010a3e:	c5a18422 	mult      	r2, r1, r13
 8010a42:	c40555e0 	zext      	r0, r5, 15, 0
 8010a46:	c44c0082 	subu      	r2, r12, r2
 8010a4a:	c4208423 	mult      	r3, r0, r1
 8010a4e:	4250      	lsli      	r2, r2, 16
 8010a50:	4e30      	lsri      	r1, r6, 16
 8010a52:	6c48      	or      	r1, r2
 8010a54:	64c4      	cmphs      	r1, r3
 8010a56:	0808      	bt      	0x8010a66	// 8010a66 <__umoddi3+0x7e>
 8010a58:	6054      	addu      	r1, r5
 8010a5a:	6544      	cmphs      	r1, r5
 8010a5c:	0c05      	bf      	0x8010a66	// 8010a66 <__umoddi3+0x7e>
 8010a5e:	5954      	addu      	r2, r1, r5
 8010a60:	64c4      	cmphs      	r1, r3
 8010a62:	c4220c20 	incf      	r1, r2, 0
 8010a66:	604e      	subu      	r1, r3
 8010a68:	c5a18023 	divu      	r3, r1, r13
 8010a6c:	7f4c      	mult      	r13, r3
 8010a6e:	6076      	subu      	r1, r13
 8010a70:	7c0c      	mult      	r0, r3
 8010a72:	4130      	lsli      	r1, r1, 16
 8010a74:	c40655e3 	zext      	r3, r6, 15, 0
 8010a78:	6cc4      	or      	r3, r1
 8010a7a:	640c      	cmphs      	r3, r0
 8010a7c:	0c69      	bf      	0x8010b4e	// 8010b4e <__umoddi3+0x166>
 8010a7e:	5b01      	subu      	r0, r3, r0
 8010a80:	7011      	lsr      	r0, r4
 8010a82:	3100      	movi      	r1, 0
 8010a84:	1486      	pop      	r4-r9
 8010a86:	64c4      	cmphs      	r1, r3
 8010a88:	0ffe      	bf      	0x8010a84	// 8010a84 <__umoddi3+0x9c>
 8010a8a:	eb03ffff 	cmphsi      	r3, 65536
 8010a8e:	0c6b      	bf      	0x8010b64	// 8010b64 <__umoddi3+0x17c>
 8010a90:	c6e0502d 	bmaski      	r13, 24
 8010a94:	64f4      	cmphs      	r13, r3
 8010a96:	3518      	movi      	r5, 24
 8010a98:	ea0d0010 	movi      	r13, 16
 8010a9c:	c5a50c20 	incf      	r13, r5, 0
 8010aa0:	03a5      	lrw      	r5, 0x80151f4	// 8010d08 <__umoddi3+0x320>
 8010aa2:	c5a34044 	lsr      	r4, r3, r13
 8010aa6:	d0850025 	ldr.b      	r5, (r5, r4 << 0)
 8010aaa:	6174      	addu      	r5, r13
 8010aac:	3420      	movi      	r4, 32
 8010aae:	6116      	subu      	r4, r5
 8010ab0:	e924006d 	bnez      	r4, 0x8010b8a	// 8010b8a <__umoddi3+0x1a2>
 8010ab4:	644c      	cmphs      	r3, r1
 8010ab6:	0c03      	bf      	0x8010abc	// 8010abc <__umoddi3+0xd4>
 8010ab8:	6480      	cmphs      	r0, r2
 8010aba:	0d20      	bf      	0x8010cfa	// 8010cfa <__umoddi3+0x312>
 8010abc:	5889      	subu      	r4, r0, r2
 8010abe:	6500      	cmphs      	r0, r4
 8010ac0:	c461008c 	subu      	r12, r1, r3
 8010ac4:	6443      	mvcv      	r1
 8010ac6:	6306      	subu      	r12, r1
 8010ac8:	6c13      	mov      	r0, r4
 8010aca:	6c73      	mov      	r1, r12
 8010acc:	1486      	pop      	r4-r9
 8010ace:	e9220005 	bnez      	r2, 0x8010ad8	// 8010ad8 <__umoddi3+0xf0>
 8010ad2:	3501      	movi      	r5, 1
 8010ad4:	c4458025 	divu      	r5, r5, r2
 8010ad8:	eb05ffff 	cmphsi      	r5, 65536
 8010adc:	0c4b      	bf      	0x8010b72	// 8010b72 <__umoddi3+0x18a>
 8010ade:	c6e05023 	bmaski      	r3, 24
 8010ae2:	654c      	cmphs      	r3, r5
 8010ae4:	ea0d0018 	movi      	r13, 24
 8010ae8:	3310      	movi      	r3, 16
 8010aea:	c5a30c40 	inct      	r13, r3, 0
 8010aee:	0358      	lrw      	r2, 0x80151f4	// 8010d08 <__umoddi3+0x320>
 8010af0:	c5a54043 	lsr      	r3, r5, r13
 8010af4:	d0620023 	ldr.b      	r3, (r2, r3 << 0)
 8010af8:	634c      	addu      	r13, r3
 8010afa:	3420      	movi      	r4, 32
 8010afc:	6136      	subu      	r4, r13
 8010afe:	e92400af 	bnez      	r4, 0x8010c5c	// 8010c5c <__umoddi3+0x274>
 8010b02:	c4a1008c 	subu      	r12, r1, r5
 8010b06:	4df0      	lsri      	r7, r5, 16
 8010b08:	c40555e2 	zext      	r2, r5, 15, 0
 8010b0c:	c4ec8021 	divu      	r1, r12, r7
 8010b10:	c4e18423 	mult      	r3, r1, r7
 8010b14:	630e      	subu      	r12, r3
 8010b16:	c60c482c 	lsli      	r12, r12, 16
 8010b1a:	c4418423 	mult      	r3, r1, r2
 8010b1e:	4e30      	lsri      	r1, r6, 16
 8010b20:	6c70      	or      	r1, r12
 8010b22:	64c4      	cmphs      	r1, r3
 8010b24:	0808      	bt      	0x8010b34	// 8010b34 <__umoddi3+0x14c>
 8010b26:	6054      	addu      	r1, r5
 8010b28:	6544      	cmphs      	r1, r5
 8010b2a:	0c05      	bf      	0x8010b34	// 8010b34 <__umoddi3+0x14c>
 8010b2c:	5914      	addu      	r0, r1, r5
 8010b2e:	64c4      	cmphs      	r1, r3
 8010b30:	c4200c20 	incf      	r1, r0, 0
 8010b34:	604e      	subu      	r1, r3
 8010b36:	c4e18020 	divu      	r0, r1, r7
 8010b3a:	7dc0      	mult      	r7, r0
 8010b3c:	605e      	subu      	r1, r7
 8010b3e:	4130      	lsli      	r1, r1, 16
 8010b40:	c40655e6 	zext      	r6, r6, 15, 0
 8010b44:	7c08      	mult      	r0, r2
 8010b46:	c4c12423 	or      	r3, r1, r6
 8010b4a:	640c      	cmphs      	r3, r0
 8010b4c:	0808      	bt      	0x8010b5c	// 8010b5c <__umoddi3+0x174>
 8010b4e:	60d4      	addu      	r3, r5
 8010b50:	654c      	cmphs      	r3, r5
 8010b52:	0c05      	bf      	0x8010b5c	// 8010b5c <__umoddi3+0x174>
 8010b54:	614c      	addu      	r5, r3
 8010b56:	640c      	cmphs      	r3, r0
 8010b58:	c4650c20 	incf      	r3, r5, 0
 8010b5c:	5b01      	subu      	r0, r3, r0
 8010b5e:	7011      	lsr      	r0, r4
 8010b60:	3100      	movi      	r1, 0
 8010b62:	1486      	pop      	r4-r9
 8010b64:	eb0300ff 	cmphsi      	r3, 256
 8010b68:	c4000505 	mvc      	r5
 8010b6c:	c465482d 	lsli      	r13, r5, 3
 8010b70:	0798      	br      	0x8010aa0	// 8010aa0 <__umoddi3+0xb8>
 8010b72:	eb0500ff 	cmphsi      	r5, 256
 8010b76:	3308      	movi      	r3, 8
 8010b78:	c5a30c40 	inct      	r13, r3, 0
 8010b7c:	07b9      	br      	0x8010aee	// 8010aee <__umoddi3+0x106>
 8010b7e:	eb0200ff 	cmphsi      	r2, 256
 8010b82:	3308      	movi      	r3, 8
 8010b84:	c5a30c40 	inct      	r13, r3, 0
 8010b88:	0744      	br      	0x8010a10	// 8010a10 <__umoddi3+0x28>
 8010b8a:	70d0      	lsl      	r3, r4
 8010b8c:	c4a24047 	lsr      	r7, r2, r5
 8010b90:	6dcc      	or      	r7, r3
 8010b92:	c4a14046 	lsr      	r6, r1, r5
 8010b96:	c481402c 	lsl      	r12, r1, r4
 8010b9a:	c4a04041 	lsr      	r1, r0, r5
 8010b9e:	6c70      	or      	r1, r12
 8010ba0:	c607484c 	lsri      	r12, r7, 16
 8010ba4:	c5868028 	divu      	r8, r6, r12
 8010ba8:	c4824023 	lsl      	r3, r2, r4
 8010bac:	c5888422 	mult      	r2, r8, r12
 8010bb0:	618a      	subu      	r6, r2
 8010bb2:	c40755ed 	zext      	r13, r7, 15, 0
 8010bb6:	46d0      	lsli      	r6, r6, 16
 8010bb8:	4950      	lsri      	r2, r1, 16
 8010bba:	c50d8429 	mult      	r9, r13, r8
 8010bbe:	6c98      	or      	r2, r6
 8010bc0:	6648      	cmphs      	r2, r9
 8010bc2:	7010      	lsl      	r0, r4
 8010bc4:	0807      	bt      	0x8010bd2	// 8010bd2 <__umoddi3+0x1ea>
 8010bc6:	609c      	addu      	r2, r7
 8010bc8:	65c8      	cmphs      	r2, r7
 8010bca:	e4c81000 	subi      	r6, r8, 1
 8010bce:	088a      	bt      	0x8010ce2	// 8010ce2 <__umoddi3+0x2fa>
 8010bd0:	6e1b      	mov      	r8, r6
 8010bd2:	60a6      	subu      	r2, r9
 8010bd4:	c5828026 	divu      	r6, r2, r12
 8010bd8:	7f18      	mult      	r12, r6
 8010bda:	60b2      	subu      	r2, r12
 8010bdc:	4250      	lsli      	r2, r2, 16
 8010bde:	c40155e1 	zext      	r1, r1, 15, 0
 8010be2:	7f58      	mult      	r13, r6
 8010be4:	6c48      	or      	r1, r2
 8010be6:	6744      	cmphs      	r1, r13
 8010be8:	0806      	bt      	0x8010bf4	// 8010bf4 <__umoddi3+0x20c>
 8010bea:	605c      	addu      	r1, r7
 8010bec:	65c4      	cmphs      	r1, r7
 8010bee:	5e43      	subi      	r2, r6, 1
 8010bf0:	0874      	bt      	0x8010cd8	// 8010cd8 <__umoddi3+0x2f0>
 8010bf2:	6d8b      	mov      	r6, r2
 8010bf4:	c6084822 	lsli      	r2, r8, 16
 8010bf8:	6c98      	or      	r2, r6
 8010bfa:	c40255e8 	zext      	r8, r2, 15, 0
 8010bfe:	c603484c 	lsri      	r12, r3, 16
 8010c02:	4a50      	lsri      	r2, r2, 16
 8010c04:	c5a1008d 	subu      	r13, r1, r13
 8010c08:	c40355e1 	zext      	r1, r3, 15, 0
 8010c0c:	c4288426 	mult      	r6, r8, r1
 8010c10:	7c48      	mult      	r1, r2
 8010c12:	7e30      	mult      	r8, r12
 8010c14:	7cb0      	mult      	r2, r12
 8010c16:	6204      	addu      	r8, r1
 8010c18:	c606484c 	lsri      	r12, r6, 16
 8010c1c:	6320      	addu      	r12, r8
 8010c1e:	6470      	cmphs      	r12, r1
 8010c20:	0804      	bt      	0x8010c28	// 8010c28 <__umoddi3+0x240>
 8010c22:	ea210001 	movih      	r1, 1
 8010c26:	6084      	addu      	r2, r1
 8010c28:	c60c4841 	lsri      	r1, r12, 16
 8010c2c:	6048      	addu      	r1, r2
 8010c2e:	6474      	cmphs      	r13, r1
 8010c30:	c60c482c 	lsli      	r12, r12, 16
 8010c34:	c40655e6 	zext      	r6, r6, 15, 0
 8010c38:	6318      	addu      	r12, r6
 8010c3a:	0c46      	bf      	0x8010cc6	// 8010cc6 <__umoddi3+0x2de>
 8010c3c:	6476      	cmpne      	r13, r1
 8010c3e:	0c60      	bf      	0x8010cfe	// 8010cfe <__umoddi3+0x316>
 8010c40:	c42d0081 	subu      	r1, r13, r1
 8010c44:	6cf3      	mov      	r3, r12
 8010c46:	586d      	subu      	r3, r0, r3
 8010c48:	64c0      	cmphs      	r0, r3
 8010c4a:	6743      	mvcv      	r13
 8010c4c:	6076      	subu      	r1, r13
 8010c4e:	c4a14025 	lsl      	r5, r1, r5
 8010c52:	c4834040 	lsr      	r0, r3, r4
 8010c56:	6c14      	or      	r0, r5
 8010c58:	7051      	lsr      	r1, r4
 8010c5a:	1486      	pop      	r4-r9
 8010c5c:	7150      	lsl      	r5, r4
 8010c5e:	c5a14048 	lsr      	r8, r1, r13
 8010c62:	4df0      	lsri      	r7, r5, 16
 8010c64:	c5a0404d 	lsr      	r13, r0, r13
 8010c68:	7050      	lsl      	r1, r4
 8010c6a:	6c74      	or      	r1, r13
 8010c6c:	c4e8802d 	divu      	r13, r8, r7
 8010c70:	c4ed8423 	mult      	r3, r13, r7
 8010c74:	c40555e2 	zext      	r2, r5, 15, 0
 8010c78:	620e      	subu      	r8, r3
 8010c7a:	c5a2842c 	mult      	r12, r2, r13
 8010c7e:	c6084828 	lsli      	r8, r8, 16
 8010c82:	c601484d 	lsri      	r13, r1, 16
 8010c86:	6f60      	or      	r13, r8
 8010c88:	6734      	cmphs      	r13, r12
 8010c8a:	c4804026 	lsl      	r6, r0, r4
 8010c8e:	0804      	bt      	0x8010c96	// 8010c96 <__umoddi3+0x2ae>
 8010c90:	6354      	addu      	r13, r5
 8010c92:	6574      	cmphs      	r13, r5
 8010c94:	082d      	bt      	0x8010cee	// 8010cee <__umoddi3+0x306>
 8010c96:	6372      	subu      	r13, r12
 8010c98:	c4ed8023 	divu      	r3, r13, r7
 8010c9c:	c4e3842c 	mult      	r12, r3, r7
 8010ca0:	6372      	subu      	r13, r12
 8010ca2:	c60d482c 	lsli      	r12, r13, 16
 8010ca6:	c40155e1 	zext      	r1, r1, 15, 0
 8010caa:	7cc8      	mult      	r3, r2
 8010cac:	6f04      	or      	r12, r1
 8010cae:	64f0      	cmphs      	r12, r3
 8010cb0:	0809      	bt      	0x8010cc2	// 8010cc2 <__umoddi3+0x2da>
 8010cb2:	6314      	addu      	r12, r5
 8010cb4:	6570      	cmphs      	r12, r5
 8010cb6:	0c06      	bf      	0x8010cc2	// 8010cc2 <__umoddi3+0x2da>
 8010cb8:	c4ac0021 	addu      	r1, r12, r5
 8010cbc:	64f0      	cmphs      	r12, r3
 8010cbe:	c5810c20 	incf      	r12, r1, 0
 8010cc2:	630e      	subu      	r12, r3
 8010cc4:	0724      	br      	0x8010b0c	// 8010b0c <__umoddi3+0x124>
 8010cc6:	c46c0083 	subu      	r3, r12, r3
 8010cca:	64f0      	cmphs      	r12, r3
 8010ccc:	605e      	subu      	r1, r7
 8010cce:	65c3      	mvcv      	r7
 8010cd0:	605e      	subu      	r1, r7
 8010cd2:	c42d0081 	subu      	r1, r13, r1
 8010cd6:	07b8      	br      	0x8010c46	// 8010c46 <__umoddi3+0x25e>
 8010cd8:	6744      	cmphs      	r1, r13
 8010cda:	0b8c      	bt      	0x8010bf2	// 8010bf2 <__umoddi3+0x20a>
 8010cdc:	2e01      	subi      	r6, 2
 8010cde:	605c      	addu      	r1, r7
 8010ce0:	078a      	br      	0x8010bf4	// 8010bf4 <__umoddi3+0x20c>
 8010ce2:	6648      	cmphs      	r2, r9
 8010ce4:	0b76      	bt      	0x8010bd0	// 8010bd0 <__umoddi3+0x1e8>
 8010ce6:	e5081001 	subi      	r8, r8, 2
 8010cea:	609c      	addu      	r2, r7
 8010cec:	0773      	br      	0x8010bd2	// 8010bd2 <__umoddi3+0x1ea>
 8010cee:	c4ad0023 	addu      	r3, r13, r5
 8010cf2:	6734      	cmphs      	r13, r12
 8010cf4:	c5a30c20 	incf      	r13, r3, 0
 8010cf8:	07cf      	br      	0x8010c96	// 8010c96 <__umoddi3+0x2ae>
 8010cfa:	6d03      	mov      	r4, r0
 8010cfc:	06e6      	br      	0x8010ac8	// 8010ac8 <__umoddi3+0xe0>
 8010cfe:	6700      	cmphs      	r0, r12
 8010d00:	0fe3      	bf      	0x8010cc6	// 8010cc6 <__umoddi3+0x2de>
 8010d02:	6cf3      	mov      	r3, r12
 8010d04:	3100      	movi      	r1, 0
 8010d06:	07a0      	br      	0x8010c46	// 8010c46 <__umoddi3+0x25e>
 8010d08:	080151f4 	.long	0x080151f4

08010d0c <__extendsfdf2>:
 8010d0c:	14d0      	push      	r15
 8010d0e:	1426      	subi      	r14, r14, 24
 8010d10:	1902      	addi      	r1, r14, 8
 8010d12:	1801      	addi      	r0, r14, 4
 8010d14:	f40e2410 	fsts      	fr0, (r14, 0x4)
 8010d18:	e000049c 	bsr      	0x8011650	// 8011650 <__unpack_f>
 8010d1c:	9865      	ld.w      	r3, (r14, 0x14)
 8010d1e:	9824      	ld.w      	r1, (r14, 0x10)
 8010d20:	6f07      	mov      	r12, r1
 8010d22:	4b42      	lsri      	r2, r3, 2
 8010d24:	b840      	st.w      	r2, (r14, 0x0)
 8010d26:	9823      	ld.w      	r1, (r14, 0xc)
 8010d28:	437e      	lsli      	r3, r3, 30
 8010d2a:	6cb3      	mov      	r2, r12
 8010d2c:	9802      	ld.w      	r0, (r14, 0x8)
 8010d2e:	e000040d 	bsr      	0x8011548	// 8011548 <__make_dp>
 8010d32:	1406      	addi      	r14, r14, 24
 8010d34:	1490      	pop      	r15
	...

08010d38 <_fpadd_parts>:
 8010d38:	14c8      	push      	r4-r11
 8010d3a:	1423      	subi      	r14, r14, 12
 8010d3c:	9060      	ld.w      	r3, (r0, 0x0)
 8010d3e:	3501      	movi      	r5, 1
 8010d40:	64d4      	cmphs      	r5, r3
 8010d42:	0871      	bt      	0x8010e24	// 8010e24 <_fpadd_parts+0xec>
 8010d44:	d9812000 	ld.w      	r12, (r1, 0x0)
 8010d48:	6714      	cmphs      	r5, r12
 8010d4a:	086f      	bt      	0x8010e28	// 8010e28 <_fpadd_parts+0xf0>
 8010d4c:	3b44      	cmpnei      	r3, 4
 8010d4e:	0cef      	bf      	0x8010f2c	// 8010f2c <_fpadd_parts+0x1f4>
 8010d50:	eb4c0004 	cmpnei      	r12, 4
 8010d54:	0c6a      	bf      	0x8010e28	// 8010e28 <_fpadd_parts+0xf0>
 8010d56:	eb4c0002 	cmpnei      	r12, 2
 8010d5a:	0cc7      	bf      	0x8010ee8	// 8010ee8 <_fpadd_parts+0x1b0>
 8010d5c:	3b42      	cmpnei      	r3, 2
 8010d5e:	0c65      	bf      	0x8010e28	// 8010e28 <_fpadd_parts+0xf0>
 8010d60:	9062      	ld.w      	r3, (r0, 0x8)
 8010d62:	d9812002 	ld.w      	r12, (r1, 0x8)
 8010d66:	c583008d 	subu      	r13, r3, r12
 8010d6a:	c40d0208 	abs      	r8, r13
 8010d6e:	eb28003f 	cmplti      	r8, 64
 8010d72:	90c3      	ld.w      	r6, (r0, 0xc)
 8010d74:	90e4      	ld.w      	r7, (r0, 0x10)
 8010d76:	b8c0      	st.w      	r6, (r14, 0x0)
 8010d78:	b8e1      	st.w      	r7, (r14, 0x4)
 8010d7a:	d9412003 	ld.w      	r10, (r1, 0xc)
 8010d7e:	d9612004 	ld.w      	r11, (r1, 0x10)
 8010d82:	0856      	bt      	0x8010e2e	// 8010e2e <_fpadd_parts+0xf6>
 8010d84:	64f1      	cmplt      	r12, r3
 8010d86:	0cc9      	bf      	0x8010f18	// 8010f18 <_fpadd_parts+0x1e0>
 8010d88:	ea0a0000 	movi      	r10, 0
 8010d8c:	ea0b0000 	movi      	r11, 0
 8010d90:	9001      	ld.w      	r0, (r0, 0x4)
 8010d92:	9121      	ld.w      	r1, (r1, 0x4)
 8010d94:	6442      	cmpne      	r0, r1
 8010d96:	0c82      	bf      	0x8010e9a	// 8010e9a <_fpadd_parts+0x162>
 8010d98:	d98e2000 	ld.w      	r12, (r14, 0x0)
 8010d9c:	d9ae2001 	ld.w      	r13, (r14, 0x4)
 8010da0:	e90000b8 	bez      	r0, 0x8010f10	// 8010f10 <_fpadd_parts+0x1d8>
 8010da4:	6730      	cmphs      	r12, r12
 8010da6:	c58a010c 	subc      	r12, r10, r12
 8010daa:	c5ab010d 	subc      	r13, r11, r13
 8010dae:	e98d00c9 	blz      	r13, 0x8010f40	// 8010f40 <_fpadd_parts+0x208>
 8010db2:	3100      	movi      	r1, 0
 8010db4:	b221      	st.w      	r1, (r2, 0x4)
 8010db6:	b262      	st.w      	r3, (r2, 0x8)
 8010db8:	dd822003 	st.w      	r12, (r2, 0xc)
 8010dbc:	dda22004 	st.w      	r13, (r2, 0x10)
 8010dc0:	6c33      	mov      	r0, r12
 8010dc2:	6c77      	mov      	r1, r13
 8010dc4:	3840      	cmpnei      	r0, 0
 8010dc6:	c4210c81 	decf      	r1, r1, 1
 8010dca:	2800      	subi      	r0, 1
 8010dcc:	c7605023 	bmaski      	r3, 28
 8010dd0:	644c      	cmphs      	r3, r1
 8010dd2:	0c71      	bf      	0x8010eb4	// 8010eb4 <_fpadd_parts+0x17c>
 8010dd4:	64c6      	cmpne      	r1, r3
 8010dd6:	0d0d      	bf      	0x8010ff0	// 8010ff0 <_fpadd_parts+0x2b8>
 8010dd8:	9262      	ld.w      	r3, (r2, 0x8)
 8010dda:	3600      	movi      	r6, 0
 8010ddc:	3700      	movi      	r7, 0
 8010dde:	ea0a0000 	movi      	r10, 0
 8010de2:	2b00      	subi      	r3, 1
 8010de4:	2e00      	subi      	r6, 1
 8010de6:	2f00      	subi      	r7, 1
 8010de8:	c7605028 	bmaski      	r8, 28
 8010dec:	e54a1001 	subi      	r10, r10, 2
 8010df0:	0403      	br      	0x8010df6	// 8010df6 <_fpadd_parts+0xbe>
 8010df2:	6606      	cmpne      	r1, r8
 8010df4:	0c8b      	bf      	0x8010f0a	// 8010f0a <_fpadd_parts+0x1d2>
 8010df6:	6511      	cmplt      	r4, r4
 8010df8:	c58c0044 	addc      	r4, r12, r12
 8010dfc:	c5ad0045 	addc      	r5, r13, r13
 8010e00:	6401      	cmplt      	r0, r0
 8010e02:	c4c40040 	addc      	r0, r4, r6
 8010e06:	c4e50041 	addc      	r1, r5, r7
 8010e0a:	6460      	cmphs      	r8, r1
 8010e0c:	6e4f      	mov      	r9, r3
 8010e0e:	6f13      	mov      	r12, r4
 8010e10:	6f57      	mov      	r13, r5
 8010e12:	2b00      	subi      	r3, 1
 8010e14:	0bef      	bt      	0x8010df2	// 8010df2 <_fpadd_parts+0xba>
 8010e16:	3303      	movi      	r3, 3
 8010e18:	b283      	st.w      	r4, (r2, 0xc)
 8010e1a:	b2a4      	st.w      	r5, (r2, 0x10)
 8010e1c:	dd222002 	st.w      	r9, (r2, 0x8)
 8010e20:	b260      	st.w      	r3, (r2, 0x0)
 8010e22:	6c0b      	mov      	r0, r2
 8010e24:	1403      	addi      	r14, r14, 12
 8010e26:	1488      	pop      	r4-r11
 8010e28:	6c07      	mov      	r0, r1
 8010e2a:	1403      	addi      	r14, r14, 12
 8010e2c:	1488      	pop      	r4-r11
 8010e2e:	e96d009a 	blsz      	r13, 0x8010f62	// 8010f62 <_fpadd_parts+0x22a>
 8010e32:	ea0d001f 	movi      	r13, 31
 8010e36:	c42b4826 	lsli      	r6, r11, 1
 8010e3a:	6362      	subu      	r13, r8
 8010e3c:	e588101f 	subi      	r12, r8, 32
 8010e40:	c5a6402d 	lsl      	r13, r6, r13
 8010e44:	c50a4046 	lsr      	r6, r10, r8
 8010e48:	c7ec2880 	btsti      	r12, 31
 8010e4c:	c58b4049 	lsr      	r9, r11, r12
 8010e50:	3400      	movi      	r4, 0
 8010e52:	6db4      	or      	r6, r13
 8010e54:	c4c90c20 	incf      	r6, r9, 0
 8010e58:	6f53      	mov      	r13, r4
 8010e5a:	c5854029 	lsl      	r9, r5, r12
 8010e5e:	c505402c 	lsl      	r12, r5, r8
 8010e62:	c50b4047 	lsr      	r7, r11, r8
 8010e66:	c5a90c20 	incf      	r13, r9, 0
 8010e6a:	c5840c20 	incf      	r12, r4, 0
 8010e6e:	c4e40c20 	incf      	r7, r4, 0
 8010e72:	eb4c0000 	cmpnei      	r12, 0
 8010e76:	c5ad0c81 	decf      	r13, r13, 1
 8010e7a:	e58c1000 	subi      	r12, r12, 1
 8010e7e:	6b28      	and      	r12, r10
 8010e80:	6b6c      	and      	r13, r11
 8010e82:	6f34      	or      	r12, r13
 8010e84:	eb4c0000 	cmpnei      	r12, 0
 8010e88:	9001      	ld.w      	r0, (r0, 0x4)
 8010e8a:	9121      	ld.w      	r1, (r1, 0x4)
 8010e8c:	c400050a 	mvc      	r10
 8010e90:	6442      	cmpne      	r0, r1
 8010e92:	6ed3      	mov      	r11, r4
 8010e94:	6e98      	or      	r10, r6
 8010e96:	6edc      	or      	r11, r7
 8010e98:	0b80      	bt      	0x8010d98	// 8010d98 <_fpadd_parts+0x60>
 8010e9a:	d98e2000 	ld.w      	r12, (r14, 0x0)
 8010e9e:	d9ae2001 	ld.w      	r13, (r14, 0x4)
 8010ea2:	6731      	cmplt      	r12, r12
 8010ea4:	6329      	addc      	r12, r10
 8010ea6:	636d      	addc      	r13, r11
 8010ea8:	b201      	st.w      	r0, (r2, 0x4)
 8010eaa:	b262      	st.w      	r3, (r2, 0x8)
 8010eac:	dd822003 	st.w      	r12, (r2, 0xc)
 8010eb0:	dda22004 	st.w      	r13, (r2, 0x10)
 8010eb4:	3303      	movi      	r3, 3
 8010eb6:	b260      	st.w      	r3, (r2, 0x0)
 8010eb8:	c7805023 	bmaski      	r3, 29
 8010ebc:	674c      	cmphs      	r3, r13
 8010ebe:	0812      	bt      	0x8010ee2	// 8010ee2 <_fpadd_parts+0x1aa>
 8010ec0:	c7ed4823 	lsli      	r3, r13, 31
 8010ec4:	c42c4840 	lsri      	r0, r12, 1
 8010ec8:	6c0c      	or      	r0, r3
 8010eca:	c42d4841 	lsri      	r1, r13, 1
 8010ece:	9262      	ld.w      	r3, (r2, 0x8)
 8010ed0:	e48c2001 	andi      	r4, r12, 1
 8010ed4:	3500      	movi      	r5, 0
 8010ed6:	6c10      	or      	r0, r4
 8010ed8:	6c54      	or      	r1, r5
 8010eda:	2300      	addi      	r3, 1
 8010edc:	b203      	st.w      	r0, (r2, 0xc)
 8010ede:	b224      	st.w      	r1, (r2, 0x10)
 8010ee0:	b262      	st.w      	r3, (r2, 0x8)
 8010ee2:	6c0b      	mov      	r0, r2
 8010ee4:	1403      	addi      	r14, r14, 12
 8010ee6:	1488      	pop      	r4-r11
 8010ee8:	3b42      	cmpnei      	r3, 2
 8010eea:	0b9d      	bt      	0x8010e24	// 8010e24 <_fpadd_parts+0xec>
 8010eec:	b260      	st.w      	r3, (r2, 0x0)
 8010eee:	9061      	ld.w      	r3, (r0, 0x4)
 8010ef0:	b261      	st.w      	r3, (r2, 0x4)
 8010ef2:	9062      	ld.w      	r3, (r0, 0x8)
 8010ef4:	b262      	st.w      	r3, (r2, 0x8)
 8010ef6:	9063      	ld.w      	r3, (r0, 0xc)
 8010ef8:	b263      	st.w      	r3, (r2, 0xc)
 8010efa:	9064      	ld.w      	r3, (r0, 0x10)
 8010efc:	9121      	ld.w      	r1, (r1, 0x4)
 8010efe:	b264      	st.w      	r3, (r2, 0x10)
 8010f00:	9061      	ld.w      	r3, (r0, 0x4)
 8010f02:	68c4      	and      	r3, r1
 8010f04:	b261      	st.w      	r3, (r2, 0x4)
 8010f06:	6c0b      	mov      	r0, r2
 8010f08:	078e      	br      	0x8010e24	// 8010e24 <_fpadd_parts+0xec>
 8010f0a:	6428      	cmphs      	r10, r0
 8010f0c:	0b75      	bt      	0x8010df6	// 8010df6 <_fpadd_parts+0xbe>
 8010f0e:	0784      	br      	0x8010e16	// 8010e16 <_fpadd_parts+0xde>
 8010f10:	6730      	cmphs      	r12, r12
 8010f12:	632b      	subc      	r12, r10
 8010f14:	636f      	subc      	r13, r11
 8010f16:	074c      	br      	0x8010dae	// 8010dae <_fpadd_parts+0x76>
 8010f18:	6cf3      	mov      	r3, r12
 8010f1a:	ea0d0000 	movi      	r13, 0
 8010f1e:	ea0c0000 	movi      	r12, 0
 8010f22:	dd8e2000 	st.w      	r12, (r14, 0x0)
 8010f26:	ddae2001 	st.w      	r13, (r14, 0x4)
 8010f2a:	0733      	br      	0x8010d90	// 8010d90 <_fpadd_parts+0x58>
 8010f2c:	eb4c0004 	cmpnei      	r12, 4
 8010f30:	0b7a      	bt      	0x8010e24	// 8010e24 <_fpadd_parts+0xec>
 8010f32:	9041      	ld.w      	r2, (r0, 0x4)
 8010f34:	9161      	ld.w      	r3, (r1, 0x4)
 8010f36:	64ca      	cmpne      	r2, r3
 8010f38:	124b      	lrw      	r2, 0x80151e0	// 8011064 <__subdf3+0x38>
 8010f3a:	c4020c40 	inct      	r0, r2, 0
 8010f3e:	0773      	br      	0x8010e24	// 8010e24 <_fpadd_parts+0xec>
 8010f40:	ea0a0000 	movi      	r10, 0
 8010f44:	ea0b0000 	movi      	r11, 0
 8010f48:	3101      	movi      	r1, 1
 8010f4a:	6730      	cmphs      	r12, r12
 8010f4c:	c58a010c 	subc      	r12, r10, r12
 8010f50:	c5ab010d 	subc      	r13, r11, r13
 8010f54:	b221      	st.w      	r1, (r2, 0x4)
 8010f56:	b262      	st.w      	r3, (r2, 0x8)
 8010f58:	dd822003 	st.w      	r12, (r2, 0xc)
 8010f5c:	dda22004 	st.w      	r13, (r2, 0x10)
 8010f60:	0730      	br      	0x8010dc0	// 8010dc0 <_fpadd_parts+0x88>
 8010f62:	e90dff17 	bez      	r13, 0x8010d90	// 8010d90 <_fpadd_parts+0x58>
 8010f66:	98c0      	ld.w      	r6, (r14, 0x0)
 8010f68:	98e1      	ld.w      	r7, (r14, 0x4)
 8010f6a:	ea0d001f 	movi      	r13, 31
 8010f6e:	47c1      	lsli      	r6, r7, 1
 8010f70:	6362      	subu      	r13, r8
 8010f72:	c5a6402d 	lsl      	r13, r6, r13
 8010f76:	ddae2002 	st.w      	r13, (r14, 0x8)
 8010f7a:	d9ae2000 	ld.w      	r13, (r14, 0x0)
 8010f7e:	e588101f 	subi      	r12, r8, 32
 8010f82:	c50d4046 	lsr      	r6, r13, r8
 8010f86:	d9ae2002 	ld.w      	r13, (r14, 0x8)
 8010f8a:	c7ec2880 	btsti      	r12, 31
 8010f8e:	3400      	movi      	r4, 0
 8010f90:	c5874049 	lsr      	r9, r7, r12
 8010f94:	6db4      	or      	r6, r13
 8010f96:	d9ae2001 	ld.w      	r13, (r14, 0x4)
 8010f9a:	c4c90c20 	incf      	r6, r9, 0
 8010f9e:	c50d4047 	lsr      	r7, r13, r8
 8010fa2:	c5854029 	lsl      	r9, r5, r12
 8010fa6:	6f53      	mov      	r13, r4
 8010fa8:	c505402c 	lsl      	r12, r5, r8
 8010fac:	c5a90c20 	incf      	r13, r9, 0
 8010fb0:	c5840c20 	incf      	r12, r4, 0
 8010fb4:	c4e40c20 	incf      	r7, r4, 0
 8010fb8:	60e0      	addu      	r3, r8
 8010fba:	eb4c0000 	cmpnei      	r12, 0
 8010fbe:	c5ad0c81 	decf      	r13, r13, 1
 8010fc2:	e58c1000 	subi      	r12, r12, 1
 8010fc6:	d90e2000 	ld.w      	r8, (r14, 0x0)
 8010fca:	d92e2001 	ld.w      	r9, (r14, 0x4)
 8010fce:	6a30      	and      	r8, r12
 8010fd0:	6a74      	and      	r9, r13
 8010fd2:	6f23      	mov      	r12, r8
 8010fd4:	6f67      	mov      	r13, r9
 8010fd6:	6f34      	or      	r12, r13
 8010fd8:	eb4c0000 	cmpnei      	r12, 0
 8010fdc:	c400050c 	mvc      	r12
 8010fe0:	6f53      	mov      	r13, r4
 8010fe2:	c5862424 	or      	r4, r6, r12
 8010fe6:	c5a72425 	or      	r5, r7, r13
 8010fea:	b880      	st.w      	r4, (r14, 0x0)
 8010fec:	b8a1      	st.w      	r5, (r14, 0x4)
 8010fee:	06d1      	br      	0x8010d90	// 8010d90 <_fpadd_parts+0x58>
 8010ff0:	3300      	movi      	r3, 0
 8010ff2:	2b01      	subi      	r3, 2
 8010ff4:	640c      	cmphs      	r3, r0
 8010ff6:	0af1      	bt      	0x8010dd8	// 8010dd8 <_fpadd_parts+0xa0>
 8010ff8:	075e      	br      	0x8010eb4	// 8010eb4 <_fpadd_parts+0x17c>
	...

08010ffc <__adddf3>:
 8010ffc:	14d2      	push      	r4-r5, r15
 8010ffe:	1433      	subi      	r14, r14, 76
 8011000:	b800      	st.w      	r0, (r14, 0x0)
 8011002:	b821      	st.w      	r1, (r14, 0x4)
 8011004:	6c3b      	mov      	r0, r14
 8011006:	6d47      	mov      	r5, r1
 8011008:	1904      	addi      	r1, r14, 16
 801100a:	b863      	st.w      	r3, (r14, 0xc)
 801100c:	b842      	st.w      	r2, (r14, 0x8)
 801100e:	e0000433 	bsr      	0x8011874	// 8011874 <__unpack_d>
 8011012:	1909      	addi      	r1, r14, 36
 8011014:	1802      	addi      	r0, r14, 8
 8011016:	e000042f 	bsr      	0x8011874	// 8011874 <__unpack_d>
 801101a:	1a0e      	addi      	r2, r14, 56
 801101c:	1909      	addi      	r1, r14, 36
 801101e:	1804      	addi      	r0, r14, 16
 8011020:	e3fffe8c 	bsr      	0x8010d38	// 8010d38 <_fpadd_parts>
 8011024:	e0000360 	bsr      	0x80116e4	// 80116e4 <__pack_d>
 8011028:	1413      	addi      	r14, r14, 76
 801102a:	1492      	pop      	r4-r5, r15

0801102c <__subdf3>:
 801102c:	14d2      	push      	r4-r5, r15
 801102e:	1433      	subi      	r14, r14, 76
 8011030:	b800      	st.w      	r0, (r14, 0x0)
 8011032:	b821      	st.w      	r1, (r14, 0x4)
 8011034:	6c3b      	mov      	r0, r14
 8011036:	6d47      	mov      	r5, r1
 8011038:	1904      	addi      	r1, r14, 16
 801103a:	b842      	st.w      	r2, (r14, 0x8)
 801103c:	b863      	st.w      	r3, (r14, 0xc)
 801103e:	e000041b 	bsr      	0x8011874	// 8011874 <__unpack_d>
 8011042:	1909      	addi      	r1, r14, 36
 8011044:	1802      	addi      	r0, r14, 8
 8011046:	e0000417 	bsr      	0x8011874	// 8011874 <__unpack_d>
 801104a:	986a      	ld.w      	r3, (r14, 0x28)
 801104c:	e4634001 	xori      	r3, r3, 1
 8011050:	1a0e      	addi      	r2, r14, 56
 8011052:	1909      	addi      	r1, r14, 36
 8011054:	1804      	addi      	r0, r14, 16
 8011056:	b86a      	st.w      	r3, (r14, 0x28)
 8011058:	e3fffe70 	bsr      	0x8010d38	// 8010d38 <_fpadd_parts>
 801105c:	e0000344 	bsr      	0x80116e4	// 80116e4 <__pack_d>
 8011060:	1413      	addi      	r14, r14, 76
 8011062:	1492      	pop      	r4-r5, r15
 8011064:	080151e0 	.long	0x080151e0

08011068 <__muldf3>:
 8011068:	14d8      	push      	r4-r11, r15
 801106a:	1436      	subi      	r14, r14, 88
 801106c:	b803      	st.w      	r0, (r14, 0xc)
 801106e:	b824      	st.w      	r1, (r14, 0x10)
 8011070:	1803      	addi      	r0, r14, 12
 8011072:	1907      	addi      	r1, r14, 28
 8011074:	b866      	st.w      	r3, (r14, 0x18)
 8011076:	b845      	st.w      	r2, (r14, 0x14)
 8011078:	e00003fe 	bsr      	0x8011874	// 8011874 <__unpack_d>
 801107c:	190c      	addi      	r1, r14, 48
 801107e:	1805      	addi      	r0, r14, 20
 8011080:	e00003fa 	bsr      	0x8011874	// 8011874 <__unpack_d>
 8011084:	9867      	ld.w      	r3, (r14, 0x1c)
 8011086:	3b01      	cmphsi      	r3, 2
 8011088:	0ca4      	bf      	0x80111d0	// 80111d0 <__muldf3+0x168>
 801108a:	984c      	ld.w      	r2, (r14, 0x30)
 801108c:	3a01      	cmphsi      	r2, 2
 801108e:	0c94      	bf      	0x80111b6	// 80111b6 <__muldf3+0x14e>
 8011090:	3b44      	cmpnei      	r3, 4
 8011092:	0c9d      	bf      	0x80111cc	// 80111cc <__muldf3+0x164>
 8011094:	3a44      	cmpnei      	r2, 4
 8011096:	0c8e      	bf      	0x80111b2	// 80111b2 <__muldf3+0x14a>
 8011098:	3b42      	cmpnei      	r3, 2
 801109a:	0c9b      	bf      	0x80111d0	// 80111d0 <__muldf3+0x168>
 801109c:	3a42      	cmpnei      	r2, 2
 801109e:	0c8c      	bf      	0x80111b6	// 80111b6 <__muldf3+0x14e>
 80110a0:	d98e200f 	ld.w      	r12, (r14, 0x3c)
 80110a4:	d90e200a 	ld.w      	r8, (r14, 0x28)
 80110a8:	3300      	movi      	r3, 0
 80110aa:	6c33      	mov      	r0, r12
 80110ac:	6ca3      	mov      	r2, r8
 80110ae:	6c4f      	mov      	r1, r3
 80110b0:	dd8e2002 	st.w      	r12, (r14, 0x8)
 80110b4:	d96e2010 	ld.w      	r11, (r14, 0x40)
 80110b8:	e00002a6 	bsr      	0x8011604	// 8011604 <__muldi3>
 80110bc:	3300      	movi      	r3, 0
 80110be:	6ca3      	mov      	r2, r8
 80110c0:	6d83      	mov      	r6, r0
 80110c2:	6dc7      	mov      	r7, r1
 80110c4:	6c4f      	mov      	r1, r3
 80110c6:	6c2f      	mov      	r0, r11
 80110c8:	e000029e 	bsr      	0x8011604	// 8011604 <__muldi3>
 80110cc:	d94e200b 	ld.w      	r10, (r14, 0x2c)
 80110d0:	3300      	movi      	r3, 0
 80110d2:	6e03      	mov      	r8, r0
 80110d4:	6e47      	mov      	r9, r1
 80110d6:	6caf      	mov      	r2, r11
 80110d8:	6c4f      	mov      	r1, r3
 80110da:	6c2b      	mov      	r0, r10
 80110dc:	e0000294 	bsr      	0x8011604	// 8011604 <__muldi3>
 80110e0:	d98e2002 	ld.w      	r12, (r14, 0x8)
 80110e4:	3300      	movi      	r3, 0
 80110e6:	b800      	st.w      	r0, (r14, 0x0)
 80110e8:	b821      	st.w      	r1, (r14, 0x4)
 80110ea:	6cb3      	mov      	r2, r12
 80110ec:	6c2b      	mov      	r0, r10
 80110ee:	6c4f      	mov      	r1, r3
 80110f0:	e000028a 	bsr      	0x8011604	// 8011604 <__muldi3>
 80110f4:	6401      	cmplt      	r0, r0
 80110f6:	6021      	addc      	r0, r8
 80110f8:	6065      	addc      	r1, r9
 80110fa:	6644      	cmphs      	r1, r9
 80110fc:	0c80      	bf      	0x80111fc	// 80111fc <__muldf3+0x194>
 80110fe:	6466      	cmpne      	r9, r1
 8011100:	0c7c      	bf      	0x80111f8	// 80111f8 <__muldf3+0x190>
 8011102:	ea080000 	movi      	r8, 0
 8011106:	ea090000 	movi      	r9, 0
 801110a:	3200      	movi      	r2, 0
 801110c:	6cc3      	mov      	r3, r0
 801110e:	6489      	cmplt      	r2, r2
 8011110:	6099      	addc      	r2, r6
 8011112:	60dd      	addc      	r3, r7
 8011114:	65cc      	cmphs      	r3, r7
 8011116:	0c6a      	bf      	0x80111ea	// 80111ea <__muldf3+0x182>
 8011118:	64de      	cmpne      	r7, r3
 801111a:	0c66      	bf      	0x80111e6	// 80111e6 <__muldf3+0x17e>
 801111c:	6f07      	mov      	r12, r1
 801111e:	ea0d0000 	movi      	r13, 0
 8011122:	9800      	ld.w      	r0, (r14, 0x0)
 8011124:	9821      	ld.w      	r1, (r14, 0x4)
 8011126:	6401      	cmplt      	r0, r0
 8011128:	6031      	addc      	r0, r12
 801112a:	6075      	addc      	r1, r13
 801112c:	6621      	cmplt      	r8, r8
 801112e:	6201      	addc      	r8, r0
 8011130:	6245      	addc      	r9, r1
 8011132:	980e      	ld.w      	r0, (r14, 0x38)
 8011134:	9829      	ld.w      	r1, (r14, 0x24)
 8011136:	6040      	addu      	r1, r0
 8011138:	590e      	addi      	r0, r1, 4
 801113a:	b813      	st.w      	r0, (r14, 0x4c)
 801113c:	d98e2008 	ld.w      	r12, (r14, 0x20)
 8011140:	980d      	ld.w      	r0, (r14, 0x34)
 8011142:	6432      	cmpne      	r12, r0
 8011144:	c780502a 	bmaski      	r10, 29
 8011148:	c4000500 	mvc      	r0
 801114c:	6668      	cmphs      	r10, r9
 801114e:	b812      	st.w      	r0, (r14, 0x48)
 8011150:	086f      	bt      	0x801122e	// 801122e <__muldf3+0x1c6>
 8011152:	2104      	addi      	r1, 5
 8011154:	ea0c0000 	movi      	r12, 0
 8011158:	ea2d8000 	movih      	r13, 32768
 801115c:	e4082001 	andi      	r0, r8, 1
 8011160:	6ec7      	mov      	r11, r1
 8011162:	e900000a 	bez      	r0, 0x8011176	// 8011176 <__muldf3+0x10e>
 8011166:	431f      	lsli      	r0, r3, 31
 8011168:	4a81      	lsri      	r4, r2, 1
 801116a:	6d00      	or      	r4, r0
 801116c:	4ba1      	lsri      	r5, r3, 1
 801116e:	c5842422 	or      	r2, r4, r12
 8011172:	c5a52423 	or      	r3, r5, r13
 8011176:	c4294840 	lsri      	r0, r9, 1
 801117a:	6428      	cmphs      	r10, r0
 801117c:	c7e94827 	lsli      	r7, r9, 31
 8011180:	c4284846 	lsri      	r6, r8, 1
 8011184:	c4c72428 	or      	r8, r7, r6
 8011188:	6e43      	mov      	r9, r0
 801118a:	2100      	addi      	r1, 1
 801118c:	0fe8      	bf      	0x801115c	// 801115c <__muldf3+0xf4>
 801118e:	dd6e2013 	st.w      	r11, (r14, 0x4c)
 8011192:	e42820ff 	andi      	r1, r8, 255
 8011196:	eb410080 	cmpnei      	r1, 128
 801119a:	0c36      	bf      	0x8011206	// 8011206 <__muldf3+0x19e>
 801119c:	3303      	movi      	r3, 3
 801119e:	dd0e2014 	st.w      	r8, (r14, 0x50)
 80111a2:	dd2e2015 	st.w      	r9, (r14, 0x54)
 80111a6:	b871      	st.w      	r3, (r14, 0x44)
 80111a8:	1811      	addi      	r0, r14, 68
 80111aa:	e000029d 	bsr      	0x80116e4	// 80116e4 <__pack_d>
 80111ae:	1416      	addi      	r14, r14, 88
 80111b0:	1498      	pop      	r4-r11, r15
 80111b2:	3b42      	cmpnei      	r3, 2
 80111b4:	0c3b      	bf      	0x801122a	// 801122a <__muldf3+0x1c2>
 80111b6:	986d      	ld.w      	r3, (r14, 0x34)
 80111b8:	9848      	ld.w      	r2, (r14, 0x20)
 80111ba:	64ca      	cmpne      	r2, r3
 80111bc:	c4000503 	mvc      	r3
 80111c0:	180c      	addi      	r0, r14, 48
 80111c2:	b86d      	st.w      	r3, (r14, 0x34)
 80111c4:	e0000290 	bsr      	0x80116e4	// 80116e4 <__pack_d>
 80111c8:	1416      	addi      	r14, r14, 88
 80111ca:	1498      	pop      	r4-r11, r15
 80111cc:	3a42      	cmpnei      	r2, 2
 80111ce:	0c2e      	bf      	0x801122a	// 801122a <__muldf3+0x1c2>
 80111d0:	9848      	ld.w      	r2, (r14, 0x20)
 80111d2:	986d      	ld.w      	r3, (r14, 0x34)
 80111d4:	64ca      	cmpne      	r2, r3
 80111d6:	c4000503 	mvc      	r3
 80111da:	1807      	addi      	r0, r14, 28
 80111dc:	b868      	st.w      	r3, (r14, 0x20)
 80111de:	e0000283 	bsr      	0x80116e4	// 80116e4 <__pack_d>
 80111e2:	1416      	addi      	r14, r14, 88
 80111e4:	1498      	pop      	r4-r11, r15
 80111e6:	6588      	cmphs      	r2, r6
 80111e8:	0b9a      	bt      	0x801111c	// 801111c <__muldf3+0xb4>
 80111ea:	e5080000 	addi      	r8, r8, 1
 80111ee:	eb480000 	cmpnei      	r8, 0
 80111f2:	c5290c21 	incf      	r9, r9, 1
 80111f6:	0793      	br      	0x801111c	// 801111c <__muldf3+0xb4>
 80111f8:	6600      	cmphs      	r0, r8
 80111fa:	0b84      	bt      	0x8011102	// 8011102 <__muldf3+0x9a>
 80111fc:	ea080000 	movi      	r8, 0
 8011200:	ea090001 	movi      	r9, 1
 8011204:	0783      	br      	0x801110a	// 801110a <__muldf3+0xa2>
 8011206:	e4282100 	andi      	r1, r8, 256
 801120a:	e921ffc9 	bnez      	r1, 0x801119c	// 801119c <__muldf3+0x134>
 801120e:	6c8c      	or      	r2, r3
 8011210:	e902ffc6 	bez      	r2, 0x801119c	// 801119c <__muldf3+0x134>
 8011214:	3280      	movi      	r2, 128
 8011216:	3300      	movi      	r3, 0
 8011218:	3100      	movi      	r1, 0
 801121a:	6489      	cmplt      	r2, r2
 801121c:	60a1      	addc      	r2, r8
 801121e:	60e5      	addc      	r3, r9
 8011220:	29ff      	subi      	r1, 256
 8011222:	c4222028 	and      	r8, r2, r1
 8011226:	6e4f      	mov      	r9, r3
 8011228:	07ba      	br      	0x801119c	// 801119c <__muldf3+0x134>
 801122a:	100f      	lrw      	r0, 0x80151e0	// 8011264 <__muldf3+0x1fc>
 801122c:	07bf      	br      	0x80111aa	// 80111aa <__muldf3+0x142>
 801122e:	c760502c 	bmaski      	r12, 28
 8011232:	6670      	cmphs      	r12, r9
 8011234:	0faf      	bf      	0x8011192	// 8011192 <__muldf3+0x12a>
 8011236:	2102      	addi      	r1, 3
 8011238:	3401      	movi      	r4, 1
 801123a:	3500      	movi      	r5, 0
 801123c:	6da3      	mov      	r6, r8
 801123e:	6de7      	mov      	r7, r9
 8011240:	6c07      	mov      	r0, r1
 8011242:	6621      	cmplt      	r8, r8
 8011244:	6219      	addc      	r8, r6
 8011246:	625d      	addc      	r9, r7
 8011248:	e9a30004 	bhsz      	r3, 0x8011250	// 8011250 <__muldf3+0x1e8>
 801124c:	6e10      	or      	r8, r4
 801124e:	6e54      	or      	r9, r5
 8011250:	6d8b      	mov      	r6, r2
 8011252:	6dcf      	mov      	r7, r3
 8011254:	6489      	cmplt      	r2, r2
 8011256:	6099      	addc      	r2, r6
 8011258:	60dd      	addc      	r3, r7
 801125a:	6670      	cmphs      	r12, r9
 801125c:	2900      	subi      	r1, 1
 801125e:	0bef      	bt      	0x801123c	// 801123c <__muldf3+0x1d4>
 8011260:	b813      	st.w      	r0, (r14, 0x4c)
 8011262:	0798      	br      	0x8011192	// 8011192 <__muldf3+0x12a>
 8011264:	080151e0 	.long	0x080151e0

08011268 <__divdf3>:
 8011268:	14d6      	push      	r4-r9, r15
 801126a:	142e      	subi      	r14, r14, 56
 801126c:	b800      	st.w      	r0, (r14, 0x0)
 801126e:	b821      	st.w      	r1, (r14, 0x4)
 8011270:	6c3b      	mov      	r0, r14
 8011272:	1904      	addi      	r1, r14, 16
 8011274:	b863      	st.w      	r3, (r14, 0xc)
 8011276:	b842      	st.w      	r2, (r14, 0x8)
 8011278:	e00002fe 	bsr      	0x8011874	// 8011874 <__unpack_d>
 801127c:	1909      	addi      	r1, r14, 36
 801127e:	1802      	addi      	r0, r14, 8
 8011280:	e00002fa 	bsr      	0x8011874	// 8011874 <__unpack_d>
 8011284:	9864      	ld.w      	r3, (r14, 0x10)
 8011286:	3b01      	cmphsi      	r3, 2
 8011288:	0c51      	bf      	0x801132a	// 801132a <__divdf3+0xc2>
 801128a:	9829      	ld.w      	r1, (r14, 0x24)
 801128c:	3201      	movi      	r2, 1
 801128e:	6448      	cmphs      	r2, r1
 8011290:	0873      	bt      	0x8011376	// 8011376 <__divdf3+0x10e>
 8011292:	9845      	ld.w      	r2, (r14, 0x14)
 8011294:	980a      	ld.w      	r0, (r14, 0x28)
 8011296:	3b44      	cmpnei      	r3, 4
 8011298:	6c81      	xor      	r2, r0
 801129a:	b845      	st.w      	r2, (r14, 0x14)
 801129c:	0c4c      	bf      	0x8011334	// 8011334 <__divdf3+0xcc>
 801129e:	3b42      	cmpnei      	r3, 2
 80112a0:	0c4a      	bf      	0x8011334	// 8011334 <__divdf3+0xcc>
 80112a2:	3944      	cmpnei      	r1, 4
 80112a4:	0c4c      	bf      	0x801133c	// 801133c <__divdf3+0xd4>
 80112a6:	3942      	cmpnei      	r1, 2
 80112a8:	0c63      	bf      	0x801136e	// 801136e <__divdf3+0x106>
 80112aa:	9807      	ld.w      	r0, (r14, 0x1c)
 80112ac:	9828      	ld.w      	r1, (r14, 0x20)
 80112ae:	98cc      	ld.w      	r6, (r14, 0x30)
 80112b0:	98ed      	ld.w      	r7, (r14, 0x34)
 80112b2:	9866      	ld.w      	r3, (r14, 0x18)
 80112b4:	984b      	ld.w      	r2, (r14, 0x2c)
 80112b6:	65c4      	cmphs      	r1, r7
 80112b8:	60ca      	subu      	r3, r2
 80112ba:	b866      	st.w      	r3, (r14, 0x18)
 80112bc:	0c05      	bf      	0x80112c6	// 80112c6 <__divdf3+0x5e>
 80112be:	645e      	cmpne      	r7, r1
 80112c0:	080a      	bt      	0x80112d4	// 80112d4 <__divdf3+0x6c>
 80112c2:	6580      	cmphs      	r0, r6
 80112c4:	0808      	bt      	0x80112d4	// 80112d4 <__divdf3+0x6c>
 80112c6:	6f03      	mov      	r12, r0
 80112c8:	6f47      	mov      	r13, r1
 80112ca:	2b00      	subi      	r3, 1
 80112cc:	6401      	cmplt      	r0, r0
 80112ce:	6031      	addc      	r0, r12
 80112d0:	6075      	addc      	r1, r13
 80112d2:	b866      	st.w      	r3, (r14, 0x18)
 80112d4:	ea0c003d 	movi      	r12, 61
 80112d8:	3400      	movi      	r4, 0
 80112da:	3500      	movi      	r5, 0
 80112dc:	3200      	movi      	r2, 0
 80112de:	ea231000 	movih      	r3, 4096
 80112e2:	65c4      	cmphs      	r1, r7
 80112e4:	0c0a      	bf      	0x80112f8	// 80112f8 <__divdf3+0x90>
 80112e6:	645e      	cmpne      	r7, r1
 80112e8:	0803      	bt      	0x80112ee	// 80112ee <__divdf3+0x86>
 80112ea:	6580      	cmphs      	r0, r6
 80112ec:	0c06      	bf      	0x80112f8	// 80112f8 <__divdf3+0x90>
 80112ee:	6d08      	or      	r4, r2
 80112f0:	6d4c      	or      	r5, r3
 80112f2:	6400      	cmphs      	r0, r0
 80112f4:	601b      	subc      	r0, r6
 80112f6:	605f      	subc      	r1, r7
 80112f8:	c7e34829 	lsli      	r9, r3, 31
 80112fc:	c4224848 	lsri      	r8, r2, 1
 8011300:	c423484d 	lsri      	r13, r3, 1
 8011304:	c5092422 	or      	r2, r9, r8
 8011308:	e58c1000 	subi      	r12, r12, 1
 801130c:	6e03      	mov      	r8, r0
 801130e:	6e47      	mov      	r9, r1
 8011310:	6cf7      	mov      	r3, r13
 8011312:	6401      	cmplt      	r0, r0
 8011314:	6021      	addc      	r0, r8
 8011316:	6065      	addc      	r1, r9
 8011318:	e92cffe5 	bnez      	r12, 0x80112e2	// 80112e2 <__divdf3+0x7a>
 801131c:	e46420ff 	andi      	r3, r4, 255
 8011320:	eb430080 	cmpnei      	r3, 128
 8011324:	0c13      	bf      	0x801134a	// 801134a <__divdf3+0xe2>
 8011326:	b887      	st.w      	r4, (r14, 0x1c)
 8011328:	b8a8      	st.w      	r5, (r14, 0x20)
 801132a:	1804      	addi      	r0, r14, 16
 801132c:	e00001dc 	bsr      	0x80116e4	// 80116e4 <__pack_d>
 8011330:	140e      	addi      	r14, r14, 56
 8011332:	1496      	pop      	r4-r9, r15
 8011334:	644e      	cmpne      	r3, r1
 8011336:	0bfa      	bt      	0x801132a	// 801132a <__divdf3+0xc2>
 8011338:	1011      	lrw      	r0, 0x80151e0	// 801137c <__divdf3+0x114>
 801133a:	07f9      	br      	0x801132c	// 801132c <__divdf3+0xc4>
 801133c:	3300      	movi      	r3, 0
 801133e:	3400      	movi      	r4, 0
 8011340:	b867      	st.w      	r3, (r14, 0x1c)
 8011342:	b888      	st.w      	r4, (r14, 0x20)
 8011344:	b866      	st.w      	r3, (r14, 0x18)
 8011346:	1804      	addi      	r0, r14, 16
 8011348:	07f2      	br      	0x801132c	// 801132c <__divdf3+0xc4>
 801134a:	e4642100 	andi      	r3, r4, 256
 801134e:	e923ffec 	bnez      	r3, 0x8011326	// 8011326 <__divdf3+0xbe>
 8011352:	6c04      	or      	r0, r1
 8011354:	e900ffe9 	bez      	r0, 0x8011326	// 8011326 <__divdf3+0xbe>
 8011358:	3280      	movi      	r2, 128
 801135a:	3300      	movi      	r3, 0
 801135c:	3100      	movi      	r1, 0
 801135e:	6489      	cmplt      	r2, r2
 8011360:	6091      	addc      	r2, r4
 8011362:	60d5      	addc      	r3, r5
 8011364:	29ff      	subi      	r1, 256
 8011366:	c4222024 	and      	r4, r2, r1
 801136a:	6d4f      	mov      	r5, r3
 801136c:	07dd      	br      	0x8011326	// 8011326 <__divdf3+0xbe>
 801136e:	3304      	movi      	r3, 4
 8011370:	b864      	st.w      	r3, (r14, 0x10)
 8011372:	1804      	addi      	r0, r14, 16
 8011374:	07dc      	br      	0x801132c	// 801132c <__divdf3+0xc4>
 8011376:	1809      	addi      	r0, r14, 36
 8011378:	07da      	br      	0x801132c	// 801132c <__divdf3+0xc4>
 801137a:	0000      	.short	0x0000
 801137c:	080151e0 	.long	0x080151e0

08011380 <__nedf2>:
 8011380:	14d2      	push      	r4-r5, r15
 8011382:	142e      	subi      	r14, r14, 56
 8011384:	b800      	st.w      	r0, (r14, 0x0)
 8011386:	b821      	st.w      	r1, (r14, 0x4)
 8011388:	6c3b      	mov      	r0, r14
 801138a:	6d47      	mov      	r5, r1
 801138c:	1904      	addi      	r1, r14, 16
 801138e:	b863      	st.w      	r3, (r14, 0xc)
 8011390:	b842      	st.w      	r2, (r14, 0x8)
 8011392:	e0000271 	bsr      	0x8011874	// 8011874 <__unpack_d>
 8011396:	1802      	addi      	r0, r14, 8
 8011398:	1909      	addi      	r1, r14, 36
 801139a:	e000026d 	bsr      	0x8011874	// 8011874 <__unpack_d>
 801139e:	9864      	ld.w      	r3, (r14, 0x10)
 80113a0:	3001      	movi      	r0, 1
 80113a2:	64c0      	cmphs      	r0, r3
 80113a4:	0808      	bt      	0x80113b4	// 80113b4 <__nedf2+0x34>
 80113a6:	9869      	ld.w      	r3, (r14, 0x24)
 80113a8:	64c0      	cmphs      	r0, r3
 80113aa:	0805      	bt      	0x80113b4	// 80113b4 <__nedf2+0x34>
 80113ac:	1909      	addi      	r1, r14, 36
 80113ae:	1804      	addi      	r0, r14, 16
 80113b0:	e00002d4 	bsr      	0x8011958	// 8011958 <__fpcmp_parts_d>
 80113b4:	140e      	addi      	r14, r14, 56
 80113b6:	1492      	pop      	r4-r5, r15

080113b8 <__gtdf2>:
 80113b8:	14d2      	push      	r4-r5, r15
 80113ba:	142e      	subi      	r14, r14, 56
 80113bc:	b800      	st.w      	r0, (r14, 0x0)
 80113be:	b821      	st.w      	r1, (r14, 0x4)
 80113c0:	6c3b      	mov      	r0, r14
 80113c2:	6d47      	mov      	r5, r1
 80113c4:	1904      	addi      	r1, r14, 16
 80113c6:	b842      	st.w      	r2, (r14, 0x8)
 80113c8:	b863      	st.w      	r3, (r14, 0xc)
 80113ca:	e0000255 	bsr      	0x8011874	// 8011874 <__unpack_d>
 80113ce:	1909      	addi      	r1, r14, 36
 80113d0:	1802      	addi      	r0, r14, 8
 80113d2:	e0000251 	bsr      	0x8011874	// 8011874 <__unpack_d>
 80113d6:	9844      	ld.w      	r2, (r14, 0x10)
 80113d8:	3301      	movi      	r3, 1
 80113da:	648c      	cmphs      	r3, r2
 80113dc:	080a      	bt      	0x80113f0	// 80113f0 <__gtdf2+0x38>
 80113de:	9849      	ld.w      	r2, (r14, 0x24)
 80113e0:	648c      	cmphs      	r3, r2
 80113e2:	0807      	bt      	0x80113f0	// 80113f0 <__gtdf2+0x38>
 80113e4:	1909      	addi      	r1, r14, 36
 80113e6:	1804      	addi      	r0, r14, 16
 80113e8:	e00002b8 	bsr      	0x8011958	// 8011958 <__fpcmp_parts_d>
 80113ec:	140e      	addi      	r14, r14, 56
 80113ee:	1492      	pop      	r4-r5, r15
 80113f0:	3000      	movi      	r0, 0
 80113f2:	2800      	subi      	r0, 1
 80113f4:	140e      	addi      	r14, r14, 56
 80113f6:	1492      	pop      	r4-r5, r15

080113f8 <__gedf2>:
 80113f8:	14d2      	push      	r4-r5, r15
 80113fa:	142e      	subi      	r14, r14, 56
 80113fc:	b800      	st.w      	r0, (r14, 0x0)
 80113fe:	b821      	st.w      	r1, (r14, 0x4)
 8011400:	6c3b      	mov      	r0, r14
 8011402:	6d47      	mov      	r5, r1
 8011404:	1904      	addi      	r1, r14, 16
 8011406:	b842      	st.w      	r2, (r14, 0x8)
 8011408:	b863      	st.w      	r3, (r14, 0xc)
 801140a:	e0000235 	bsr      	0x8011874	// 8011874 <__unpack_d>
 801140e:	1909      	addi      	r1, r14, 36
 8011410:	1802      	addi      	r0, r14, 8
 8011412:	e0000231 	bsr      	0x8011874	// 8011874 <__unpack_d>
 8011416:	9844      	ld.w      	r2, (r14, 0x10)
 8011418:	3301      	movi      	r3, 1
 801141a:	648c      	cmphs      	r3, r2
 801141c:	080a      	bt      	0x8011430	// 8011430 <__gedf2+0x38>
 801141e:	9849      	ld.w      	r2, (r14, 0x24)
 8011420:	648c      	cmphs      	r3, r2
 8011422:	0807      	bt      	0x8011430	// 8011430 <__gedf2+0x38>
 8011424:	1909      	addi      	r1, r14, 36
 8011426:	1804      	addi      	r0, r14, 16
 8011428:	e0000298 	bsr      	0x8011958	// 8011958 <__fpcmp_parts_d>
 801142c:	140e      	addi      	r14, r14, 56
 801142e:	1492      	pop      	r4-r5, r15
 8011430:	3000      	movi      	r0, 0
 8011432:	2800      	subi      	r0, 1
 8011434:	140e      	addi      	r14, r14, 56
 8011436:	1492      	pop      	r4-r5, r15

08011438 <__ltdf2>:
 8011438:	14d2      	push      	r4-r5, r15
 801143a:	142e      	subi      	r14, r14, 56
 801143c:	b800      	st.w      	r0, (r14, 0x0)
 801143e:	b821      	st.w      	r1, (r14, 0x4)
 8011440:	6c3b      	mov      	r0, r14
 8011442:	6d47      	mov      	r5, r1
 8011444:	1904      	addi      	r1, r14, 16
 8011446:	b863      	st.w      	r3, (r14, 0xc)
 8011448:	b842      	st.w      	r2, (r14, 0x8)
 801144a:	e0000215 	bsr      	0x8011874	// 8011874 <__unpack_d>
 801144e:	1802      	addi      	r0, r14, 8
 8011450:	1909      	addi      	r1, r14, 36
 8011452:	e0000211 	bsr      	0x8011874	// 8011874 <__unpack_d>
 8011456:	9864      	ld.w      	r3, (r14, 0x10)
 8011458:	3001      	movi      	r0, 1
 801145a:	64c0      	cmphs      	r0, r3
 801145c:	0808      	bt      	0x801146c	// 801146c <__ltdf2+0x34>
 801145e:	9869      	ld.w      	r3, (r14, 0x24)
 8011460:	64c0      	cmphs      	r0, r3
 8011462:	0805      	bt      	0x801146c	// 801146c <__ltdf2+0x34>
 8011464:	1909      	addi      	r1, r14, 36
 8011466:	1804      	addi      	r0, r14, 16
 8011468:	e0000278 	bsr      	0x8011958	// 8011958 <__fpcmp_parts_d>
 801146c:	140e      	addi      	r14, r14, 56
 801146e:	1492      	pop      	r4-r5, r15

08011470 <__floatsidf>:
 8011470:	14d0      	push      	r15
 8011472:	1425      	subi      	r14, r14, 20
 8011474:	3303      	movi      	r3, 3
 8011476:	b860      	st.w      	r3, (r14, 0x0)
 8011478:	487f      	lsri      	r3, r0, 31
 801147a:	b861      	st.w      	r3, (r14, 0x4)
 801147c:	e9200009 	bnez      	r0, 0x801148e	// 801148e <__floatsidf+0x1e>
 8011480:	3302      	movi      	r3, 2
 8011482:	b860      	st.w      	r3, (r14, 0x0)
 8011484:	6c3b      	mov      	r0, r14
 8011486:	e000012f 	bsr      	0x80116e4	// 80116e4 <__pack_d>
 801148a:	1405      	addi      	r14, r14, 20
 801148c:	1490      	pop      	r15
 801148e:	e9a00008 	bhsz      	r0, 0x801149e	// 801149e <__floatsidf+0x2e>
 8011492:	ea238000 	movih      	r3, 32768
 8011496:	64c2      	cmpne      	r0, r3
 8011498:	0c1c      	bf      	0x80114d0	// 80114d0 <__floatsidf+0x60>
 801149a:	3300      	movi      	r3, 0
 801149c:	5b01      	subu      	r0, r3, r0
 801149e:	c4007c42 	ff1      	r2, r0
 80114a2:	e422001c 	addi      	r1, r2, 29
 80114a6:	ea0c001f 	movi      	r12, 31
 80114aa:	2a02      	subi      	r2, 3
 80114ac:	4861      	lsri      	r3, r0, 1
 80114ae:	6306      	subu      	r12, r1
 80114b0:	c440402d 	lsl      	r13, r0, r2
 80114b4:	3adf      	btsti      	r2, 31
 80114b6:	70f1      	lsr      	r3, r12
 80114b8:	c46d0c20 	incf      	r3, r13, 0
 80114bc:	7004      	lsl      	r0, r1
 80114be:	b864      	st.w      	r3, (r14, 0x10)
 80114c0:	3300      	movi      	r3, 0
 80114c2:	c4030c20 	incf      	r0, r3, 0
 80114c6:	333c      	movi      	r3, 60
 80114c8:	60c6      	subu      	r3, r1
 80114ca:	b803      	st.w      	r0, (r14, 0xc)
 80114cc:	b862      	st.w      	r3, (r14, 0x8)
 80114ce:	07db      	br      	0x8011484	// 8011484 <__floatsidf+0x14>
 80114d0:	3000      	movi      	r0, 0
 80114d2:	ea21c1e0 	movih      	r1, 49632
 80114d6:	07da      	br      	0x801148a	// 801148a <__floatsidf+0x1a>

080114d8 <__fixdfsi>:
 80114d8:	14d0      	push      	r15
 80114da:	1427      	subi      	r14, r14, 28
 80114dc:	b800      	st.w      	r0, (r14, 0x0)
 80114de:	b821      	st.w      	r1, (r14, 0x4)
 80114e0:	6c3b      	mov      	r0, r14
 80114e2:	1902      	addi      	r1, r14, 8
 80114e4:	e00001c8 	bsr      	0x8011874	// 8011874 <__unpack_d>
 80114e8:	9862      	ld.w      	r3, (r14, 0x8)
 80114ea:	3202      	movi      	r2, 2
 80114ec:	64c8      	cmphs      	r2, r3
 80114ee:	082a      	bt      	0x8011542	// 8011542 <__fixdfsi+0x6a>
 80114f0:	3b44      	cmpnei      	r3, 4
 80114f2:	0c06      	bf      	0x80114fe	// 80114fe <__fixdfsi+0x26>
 80114f4:	9804      	ld.w      	r0, (r14, 0x10)
 80114f6:	e9800026 	blz      	r0, 0x8011542	// 8011542 <__fixdfsi+0x6a>
 80114fa:	383e      	cmplti      	r0, 31
 80114fc:	080a      	bt      	0x8011510	// 8011510 <__fixdfsi+0x38>
 80114fe:	9863      	ld.w      	r3, (r14, 0xc)
 8011500:	3b40      	cmpnei      	r3, 0
 8011502:	c4000500 	mvc      	r0
 8011506:	c7c05023 	bmaski      	r3, 31
 801150a:	600c      	addu      	r0, r3
 801150c:	1407      	addi      	r14, r14, 28
 801150e:	1490      	pop      	r15
 8011510:	323c      	movi      	r2, 60
 8011512:	5a21      	subu      	r1, r2, r0
 8011514:	e581101f 	subi      	r12, r1, 32
 8011518:	9866      	ld.w      	r3, (r14, 0x18)
 801151a:	321f      	movi      	r2, 31
 801151c:	c5834040 	lsr      	r0, r3, r12
 8011520:	6086      	subu      	r2, r1
 8011522:	4361      	lsli      	r3, r3, 1
 8011524:	70c8      	lsl      	r3, r2
 8011526:	9845      	ld.w      	r2, (r14, 0x14)
 8011528:	7085      	lsr      	r2, r1
 801152a:	6c8c      	or      	r2, r3
 801152c:	9863      	ld.w      	r3, (r14, 0xc)
 801152e:	c7ec2880 	btsti      	r12, 31
 8011532:	c4020c40 	inct      	r0, r2, 0
 8011536:	e903ffeb 	bez      	r3, 0x801150c	// 801150c <__fixdfsi+0x34>
 801153a:	3300      	movi      	r3, 0
 801153c:	5b01      	subu      	r0, r3, r0
 801153e:	1407      	addi      	r14, r14, 28
 8011540:	1490      	pop      	r15
 8011542:	3000      	movi      	r0, 0
 8011544:	1407      	addi      	r14, r14, 28
 8011546:	1490      	pop      	r15

08011548 <__make_dp>:
 8011548:	1421      	subi      	r14, r14, 4
 801154a:	14d0      	push      	r15
 801154c:	1425      	subi      	r14, r14, 20
 801154e:	b866      	st.w      	r3, (r14, 0x18)
 8011550:	d98e2006 	ld.w      	r12, (r14, 0x18)
 8011554:	d9ae2007 	ld.w      	r13, (r14, 0x1c)
 8011558:	b800      	st.w      	r0, (r14, 0x0)
 801155a:	6c3b      	mov      	r0, r14
 801155c:	b821      	st.w      	r1, (r14, 0x4)
 801155e:	b842      	st.w      	r2, (r14, 0x8)
 8011560:	dd8e2003 	st.w      	r12, (r14, 0xc)
 8011564:	ddae2004 	st.w      	r13, (r14, 0x10)
 8011568:	e00000be 	bsr      	0x80116e4	// 80116e4 <__pack_d>
 801156c:	1405      	addi      	r14, r14, 20
 801156e:	d9ee2000 	ld.w      	r15, (r14, 0x0)
 8011572:	1402      	addi      	r14, r14, 8
 8011574:	783c      	jmp      	r15
	...

08011578 <__truncdfsf2>:
 8011578:	14d0      	push      	r15
 801157a:	1427      	subi      	r14, r14, 28
 801157c:	b800      	st.w      	r0, (r14, 0x0)
 801157e:	b821      	st.w      	r1, (r14, 0x4)
 8011580:	6c3b      	mov      	r0, r14
 8011582:	1902      	addi      	r1, r14, 8
 8011584:	e0000178 	bsr      	0x8011874	// 8011874 <__unpack_d>
 8011588:	9845      	ld.w      	r2, (r14, 0x14)
 801158a:	4a3e      	lsri      	r1, r2, 30
 801158c:	9866      	ld.w      	r3, (r14, 0x18)
 801158e:	c40257a2 	zext      	r2, r2, 29, 0
 8011592:	4362      	lsli      	r3, r3, 2
 8011594:	6cc4      	or      	r3, r1
 8011596:	e9020004 	bez      	r2, 0x801159e	// 801159e <__truncdfsf2+0x26>
 801159a:	ec630001 	ori      	r3, r3, 1
 801159e:	9844      	ld.w      	r2, (r14, 0x10)
 80115a0:	9823      	ld.w      	r1, (r14, 0xc)
 80115a2:	9802      	ld.w      	r0, (r14, 0x8)
 80115a4:	e0000094 	bsr      	0x80116cc	// 80116cc <__make_fp>
 80115a8:	1407      	addi      	r14, r14, 28
 80115aa:	1490      	pop      	r15

080115ac <__floatunsidf>:
 80115ac:	14d1      	push      	r4, r15
 80115ae:	1425      	subi      	r14, r14, 20
 80115b0:	3100      	movi      	r1, 0
 80115b2:	b821      	st.w      	r1, (r14, 0x4)
 80115b4:	e9000020 	bez      	r0, 0x80115f4	// 80115f4 <__floatunsidf+0x48>
 80115b8:	c4007c42 	ff1      	r2, r0
 80115bc:	e582001c 	addi      	r12, r2, 29
 80115c0:	3303      	movi      	r3, 3
 80115c2:	ea0d001f 	movi      	r13, 31
 80115c6:	2a02      	subi      	r2, 3
 80115c8:	b860      	st.w      	r3, (r14, 0x0)
 80115ca:	6372      	subu      	r13, r12
 80115cc:	4861      	lsri      	r3, r0, 1
 80115ce:	c4404024 	lsl      	r4, r0, r2
 80115d2:	3adf      	btsti      	r2, 31
 80115d4:	70f5      	lsr      	r3, r13
 80115d6:	c4640c20 	incf      	r3, r4, 0
 80115da:	7030      	lsl      	r0, r12
 80115dc:	c4010c20 	incf      	r0, r1, 0
 80115e0:	b864      	st.w      	r3, (r14, 0x10)
 80115e2:	333c      	movi      	r3, 60
 80115e4:	b803      	st.w      	r0, (r14, 0xc)
 80115e6:	60f2      	subu      	r3, r12
 80115e8:	6c3b      	mov      	r0, r14
 80115ea:	b862      	st.w      	r3, (r14, 0x8)
 80115ec:	e000007c 	bsr      	0x80116e4	// 80116e4 <__pack_d>
 80115f0:	1405      	addi      	r14, r14, 20
 80115f2:	1491      	pop      	r4, r15
 80115f4:	3302      	movi      	r3, 2
 80115f6:	6c3b      	mov      	r0, r14
 80115f8:	b860      	st.w      	r3, (r14, 0x0)
 80115fa:	e0000075 	bsr      	0x80116e4	// 80116e4 <__pack_d>
 80115fe:	1405      	addi      	r14, r14, 20
 8011600:	1491      	pop      	r4, r15
	...

08011604 <__muldi3>:
 8011604:	14c3      	push      	r4-r6
 8011606:	c602484d 	lsri      	r13, r2, 16
 801160a:	c40055ec 	zext      	r12, r0, 15, 0
 801160e:	4890      	lsri      	r4, r0, 16
 8011610:	c40255e5 	zext      	r5, r2, 15, 0
 8011614:	c4ac8426 	mult      	r6, r12, r5
 8011618:	7d50      	mult      	r5, r4
 801161a:	7f34      	mult      	r12, r13
 801161c:	7d34      	mult      	r4, r13
 801161e:	c4ac002d 	addu      	r13, r12, r5
 8011622:	c606484c 	lsri      	r12, r6, 16
 8011626:	6334      	addu      	r12, r13
 8011628:	6570      	cmphs      	r12, r5
 801162a:	0804      	bt      	0x8011632	// 8011632 <__muldi3+0x2e>
 801162c:	ea2d0001 	movih      	r13, 1
 8011630:	6134      	addu      	r4, r13
 8011632:	c60c484d 	lsri      	r13, r12, 16
 8011636:	7cc0      	mult      	r3, r0
 8011638:	7c48      	mult      	r1, r2
 801163a:	6134      	addu      	r4, r13
 801163c:	c60c482c 	lsli      	r12, r12, 16
 8011640:	c40655e6 	zext      	r6, r6, 15, 0
 8011644:	604c      	addu      	r1, r3
 8011646:	c4cc0020 	addu      	r0, r12, r6
 801164a:	6050      	addu      	r1, r4
 801164c:	1483      	pop      	r4-r6
	...

08011650 <__unpack_f>:
 8011650:	8841      	ld.h      	r2, (r0, 0x2)
 8011652:	9060      	ld.w      	r3, (r0, 0x0)
 8011654:	c4e255c2 	zext      	r2, r2, 14, 7
 8011658:	8003      	ld.b      	r0, (r0, 0x3)
 801165a:	4807      	lsri      	r0, r0, 7
 801165c:	c40356c3 	zext      	r3, r3, 22, 0
 8011660:	b101      	st.w      	r0, (r1, 0x4)
 8011662:	e9220013 	bnez      	r2, 0x8011688	// 8011688 <__unpack_f+0x38>
 8011666:	e903001c 	bez      	r3, 0x801169e	// 801169e <__unpack_f+0x4e>
 801166a:	3203      	movi      	r2, 3
 801166c:	b140      	st.w      	r2, (r1, 0x0)
 801166e:	3200      	movi      	r2, 0
 8011670:	4367      	lsli      	r3, r3, 7
 8011672:	2a7e      	subi      	r2, 127
 8011674:	c7a0502c 	bmaski      	r12, 30
 8011678:	60cc      	addu      	r3, r3
 801167a:	64f0      	cmphs      	r12, r3
 801167c:	6c0b      	mov      	r0, r2
 801167e:	2a00      	subi      	r2, 1
 8011680:	0bfc      	bt      	0x8011678	// 8011678 <__unpack_f+0x28>
 8011682:	b102      	st.w      	r0, (r1, 0x8)
 8011684:	b163      	st.w      	r3, (r1, 0xc)
 8011686:	783c      	jmp      	r15
 8011688:	eb4200ff 	cmpnei      	r2, 255
 801168c:	0c0c      	bf      	0x80116a4	// 80116a4 <__unpack_f+0x54>
 801168e:	2a7e      	subi      	r2, 127
 8011690:	4367      	lsli      	r3, r3, 7
 8011692:	b142      	st.w      	r2, (r1, 0x8)
 8011694:	3bbe      	bseti      	r3, 30
 8011696:	3203      	movi      	r2, 3
 8011698:	b140      	st.w      	r2, (r1, 0x0)
 801169a:	b163      	st.w      	r3, (r1, 0xc)
 801169c:	783c      	jmp      	r15
 801169e:	3302      	movi      	r3, 2
 80116a0:	b160      	st.w      	r3, (r1, 0x0)
 80116a2:	783c      	jmp      	r15
 80116a4:	e903000f 	bez      	r3, 0x80116c2	// 80116c2 <__unpack_f+0x72>
 80116a8:	ea220040 	movih      	r2, 64
 80116ac:	688c      	and      	r2, r3
 80116ae:	3a40      	cmpnei      	r2, 0
 80116b0:	3001      	movi      	r0, 1
 80116b2:	c4400c40 	inct      	r2, r0, 0
 80116b6:	b140      	st.w      	r2, (r1, 0x0)
 80116b8:	4367      	lsli      	r3, r3, 7
 80116ba:	1044      	lrw      	r2, 0xdfffff80	// 80116c8 <__unpack_f+0x78>
 80116bc:	68c8      	and      	r3, r2
 80116be:	b163      	st.w      	r3, (r1, 0xc)
 80116c0:	07ee      	br      	0x801169c	// 801169c <__unpack_f+0x4c>
 80116c2:	3304      	movi      	r3, 4
 80116c4:	b160      	st.w      	r3, (r1, 0x0)
 80116c6:	07eb      	br      	0x801169c	// 801169c <__unpack_f+0x4c>
 80116c8:	dfffff80 	.long	0xdfffff80

080116cc <__make_fp>:
 80116cc:	14d0      	push      	r15
 80116ce:	1424      	subi      	r14, r14, 16
 80116d0:	b800      	st.w      	r0, (r14, 0x0)
 80116d2:	6c3b      	mov      	r0, r14
 80116d4:	b821      	st.w      	r1, (r14, 0x4)
 80116d6:	b842      	st.w      	r2, (r14, 0x8)
 80116d8:	b863      	st.w      	r3, (r14, 0xc)
 80116da:	e00001a1 	bsr      	0x8011a1c	// 8011a1c <__pack_f>
 80116de:	1404      	addi      	r14, r14, 16
 80116e0:	1490      	pop      	r15
	...

080116e4 <__pack_d>:
 80116e4:	14c5      	push      	r4-r8
 80116e6:	9020      	ld.w      	r1, (r0, 0x0)
 80116e8:	3901      	cmphsi      	r1, 2
 80116ea:	9043      	ld.w      	r2, (r0, 0xc)
 80116ec:	9064      	ld.w      	r3, (r0, 0x10)
 80116ee:	d9a02001 	ld.w      	r13, (r0, 0x4)
 80116f2:	0c47      	bf      	0x8011780	// 8011780 <__pack_d+0x9c>
 80116f4:	3944      	cmpnei      	r1, 4
 80116f6:	0c40      	bf      	0x8011776	// 8011776 <__pack_d+0x92>
 80116f8:	3942      	cmpnei      	r1, 2
 80116fa:	0c28      	bf      	0x801174a	// 801174a <__pack_d+0x66>
 80116fc:	c4622421 	or      	r1, r2, r3
 8011700:	e9010025 	bez      	r1, 0x801174a	// 801174a <__pack_d+0x66>
 8011704:	9022      	ld.w      	r1, (r0, 0x8)
 8011706:	ea0003fd 	movi      	r0, 1021
 801170a:	6c02      	nor      	r0, r0
 801170c:	6405      	cmplt      	r1, r0
 801170e:	0855      	bt      	0x80117b8	// 80117b8 <__pack_d+0xd4>
 8011710:	eb2103ff 	cmplti      	r1, 1024
 8011714:	0c31      	bf      	0x8011776	// 8011776 <__pack_d+0x92>
 8011716:	e40220ff 	andi      	r0, r2, 255
 801171a:	eb400080 	cmpnei      	r0, 128
 801171e:	0c43      	bf      	0x80117a4	// 80117a4 <__pack_d+0xc0>
 8011720:	347f      	movi      	r4, 127
 8011722:	3500      	movi      	r5, 0
 8011724:	6489      	cmplt      	r2, r2
 8011726:	6091      	addc      	r2, r4
 8011728:	60d5      	addc      	r3, r5
 801172a:	c7805020 	bmaski      	r0, 29
 801172e:	64c0      	cmphs      	r0, r3
 8011730:	0c19      	bf      	0x8011762	// 8011762 <__pack_d+0x7e>
 8011732:	e58103fe 	addi      	r12, r1, 1023
 8011736:	4b28      	lsri      	r1, r3, 8
 8011738:	4398      	lsli      	r4, r3, 24
 801173a:	4a08      	lsri      	r0, r2, 8
 801173c:	c4015663 	zext      	r3, r1, 19, 0
 8011740:	6c4f      	mov      	r1, r3
 8011742:	6c10      	or      	r0, r4
 8011744:	e46c27ff 	andi      	r3, r12, 2047
 8011748:	0404      	br      	0x8011750	// 8011750 <__pack_d+0x6c>
 801174a:	3300      	movi      	r3, 0
 801174c:	3000      	movi      	r0, 0
 801174e:	3100      	movi      	r1, 0
 8011750:	3200      	movi      	r2, 0
 8011752:	c4415e60 	ins      	r2, r1, 19, 0
 8011756:	c4435d54 	ins      	r2, r3, 30, 20
 801175a:	c44d5c1f 	ins      	r2, r13, 31, 31
 801175e:	6c4b      	mov      	r1, r2
 8011760:	1485      	pop      	r4-r8
 8011762:	439f      	lsli      	r4, r3, 31
 8011764:	c422484c 	lsri      	r12, r2, 1
 8011768:	4b01      	lsri      	r0, r3, 1
 801176a:	c5842422 	or      	r2, r4, r12
 801176e:	6cc3      	mov      	r3, r0
 8011770:	e58103ff 	addi      	r12, r1, 1024
 8011774:	07e1      	br      	0x8011736	// 8011736 <__pack_d+0x52>
 8011776:	ea0307ff 	movi      	r3, 2047
 801177a:	3000      	movi      	r0, 0
 801177c:	3100      	movi      	r1, 0
 801177e:	07e9      	br      	0x8011750	// 8011750 <__pack_d+0x6c>
 8011780:	c703482c 	lsli      	r12, r3, 24
 8011784:	4a48      	lsri      	r2, r2, 8
 8011786:	c44c2420 	or      	r0, r12, r2
 801178a:	c5035741 	zext      	r1, r3, 26, 8
 801178e:	3200      	movi      	r2, 0
 8011790:	ea230008 	movih      	r3, 8
 8011794:	6c08      	or      	r0, r2
 8011796:	6c4c      	or      	r1, r3
 8011798:	c4015663 	zext      	r3, r1, 19, 0
 801179c:	6c4f      	mov      	r1, r3
 801179e:	ea0307ff 	movi      	r3, 2047
 80117a2:	07d7      	br      	0x8011750	// 8011750 <__pack_d+0x6c>
 80117a4:	e4022100 	andi      	r0, r2, 256
 80117a8:	e900ffc1 	bez      	r0, 0x801172a	// 801172a <__pack_d+0x46>
 80117ac:	3480      	movi      	r4, 128
 80117ae:	3500      	movi      	r5, 0
 80117b0:	6489      	cmplt      	r2, r2
 80117b2:	6091      	addc      	r2, r4
 80117b4:	60d5      	addc      	r3, r5
 80117b6:	07ba      	br      	0x801172a	// 801172a <__pack_d+0x46>
 80117b8:	5825      	subu      	r1, r0, r1
 80117ba:	eb210038 	cmplti      	r1, 57
 80117be:	0fc6      	bf      	0x801174a	// 801174a <__pack_d+0x66>
 80117c0:	341f      	movi      	r4, 31
 80117c2:	c423482c 	lsli      	r12, r3, 1
 80117c6:	6106      	subu      	r4, r1
 80117c8:	e401101f 	subi      	r0, r1, 32
 80117cc:	7310      	lsl      	r12, r4
 80117ce:	c4224046 	lsr      	r6, r2, r1
 80117d2:	38df      	btsti      	r0, 31
 80117d4:	c4034045 	lsr      	r5, r3, r0
 80117d8:	ea080000 	movi      	r8, 0
 80117dc:	6db0      	or      	r6, r12
 80117de:	ea0c0001 	movi      	r12, 1
 80117e2:	c4c50c20 	incf      	r6, r5, 0
 80117e6:	c40c4020 	lsl      	r0, r12, r0
 80117ea:	6d63      	mov      	r5, r8
 80117ec:	c42c4024 	lsl      	r4, r12, r1
 80117f0:	c4234047 	lsr      	r7, r3, r1
 80117f4:	c4a00c20 	incf      	r5, r0, 0
 80117f8:	c4880c20 	incf      	r4, r8, 0
 80117fc:	c4e80c20 	incf      	r7, r8, 0
 8011800:	3c40      	cmpnei      	r4, 0
 8011802:	c4a50c81 	decf      	r5, r5, 1
 8011806:	2c00      	subi      	r4, 1
 8011808:	6890      	and      	r2, r4
 801180a:	68d4      	and      	r3, r5
 801180c:	6c8c      	or      	r2, r3
 801180e:	3a40      	cmpnei      	r2, 0
 8011810:	c4000502 	mvc      	r2
 8011814:	6ce3      	mov      	r3, r8
 8011816:	6d88      	or      	r6, r2
 8011818:	6dcc      	or      	r7, r3
 801181a:	e46620ff 	andi      	r3, r6, 255
 801181e:	eb430080 	cmpnei      	r3, 128
 8011822:	0814      	bt      	0x801184a	// 801184a <__pack_d+0x166>
 8011824:	e4662100 	andi      	r3, r6, 256
 8011828:	e9230023 	bnez      	r3, 0x801186e	// 801186e <__pack_d+0x18a>
 801182c:	4758      	lsli      	r2, r7, 24
 801182e:	4f28      	lsri      	r1, r7, 8
 8011830:	4e08      	lsri      	r0, r6, 8
 8011832:	6c08      	or      	r0, r2
 8011834:	c4015662 	zext      	r2, r1, 19, 0
 8011838:	6c4b      	mov      	r1, r2
 801183a:	c7605022 	bmaski      	r2, 28
 801183e:	65c8      	cmphs      	r2, r7
 8011840:	0c02      	bf      	0x8011844	// 8011844 <__pack_d+0x160>
 8011842:	6f0f      	mov      	r12, r3
 8011844:	e46c2001 	andi      	r3, r12, 1
 8011848:	0784      	br      	0x8011750	// 8011750 <__pack_d+0x6c>
 801184a:	327f      	movi      	r2, 127
 801184c:	3300      	movi      	r3, 0
 801184e:	6599      	cmplt      	r6, r6
 8011850:	6189      	addc      	r6, r2
 8011852:	61cd      	addc      	r7, r3
 8011854:	4778      	lsli      	r3, r7, 24
 8011856:	4f28      	lsri      	r1, r7, 8
 8011858:	4e08      	lsri      	r0, r6, 8
 801185a:	6c0c      	or      	r0, r3
 801185c:	c4015663 	zext      	r3, r1, 19, 0
 8011860:	6c4f      	mov      	r1, r3
 8011862:	c7605023 	bmaski      	r3, 28
 8011866:	65cc      	cmphs      	r3, r7
 8011868:	0fee      	bf      	0x8011844	// 8011844 <__pack_d+0x160>
 801186a:	6f23      	mov      	r12, r8
 801186c:	07ec      	br      	0x8011844	// 8011844 <__pack_d+0x160>
 801186e:	3280      	movi      	r2, 128
 8011870:	07ee      	br      	0x801184c	// 801184c <__pack_d+0x168>
	...

08011874 <__unpack_d>:
 8011874:	1421      	subi      	r14, r14, 4
 8011876:	dd6e2000 	st.w      	r11, (r14, 0x0)
 801187a:	8863      	ld.h      	r3, (r0, 0x6)
 801187c:	8047      	ld.b      	r2, (r0, 0x7)
 801187e:	c48355c3 	zext      	r3, r3, 14, 4
 8011882:	d9802001 	ld.w      	r12, (r0, 0x4)
 8011886:	4a47      	lsri      	r2, r2, 7
 8011888:	d9a02000 	ld.w      	r13, (r0, 0x0)
 801188c:	c40c566c 	zext      	r12, r12, 19, 0
 8011890:	b141      	st.w      	r2, (r1, 0x4)
 8011892:	e9230025 	bnez      	r3, 0x80118dc	// 80118dc <__unpack_d+0x68>
 8011896:	c58d2423 	or      	r3, r13, r12
 801189a:	e903003c 	bez      	r3, 0x8011912	// 8011912 <__unpack_d+0x9e>
 801189e:	c70d4840 	lsri      	r0, r13, 24
 80118a2:	c50c4823 	lsli      	r3, r12, 8
 80118a6:	6cc0      	or      	r3, r0
 80118a8:	3003      	movi      	r0, 3
 80118aa:	c50d4822 	lsli      	r2, r13, 8
 80118ae:	b100      	st.w      	r0, (r1, 0x0)
 80118b0:	c760502d 	bmaski      	r13, 28
 80118b4:	ea0003fe 	movi      	r0, 1022
 80118b8:	6c02      	nor      	r0, r0
 80118ba:	6ecb      	mov      	r11, r2
 80118bc:	6f0f      	mov      	r12, r3
 80118be:	6489      	cmplt      	r2, r2
 80118c0:	60ad      	addc      	r2, r11
 80118c2:	60f1      	addc      	r3, r12
 80118c4:	64f4      	cmphs      	r13, r3
 80118c6:	6f03      	mov      	r12, r0
 80118c8:	2800      	subi      	r0, 1
 80118ca:	0bf8      	bt      	0x80118ba	// 80118ba <__unpack_d+0x46>
 80118cc:	dd812002 	st.w      	r12, (r1, 0x8)
 80118d0:	b143      	st.w      	r2, (r1, 0xc)
 80118d2:	b164      	st.w      	r3, (r1, 0x10)
 80118d4:	d96e2000 	ld.w      	r11, (r14, 0x0)
 80118d8:	1401      	addi      	r14, r14, 4
 80118da:	783c      	jmp      	r15
 80118dc:	eb4307ff 	cmpnei      	r3, 2047
 80118e0:	0c1f      	bf      	0x801191e	// 801191e <__unpack_d+0xaa>
 80118e2:	e46313fe 	subi      	r3, r3, 1023
 80118e6:	b162      	st.w      	r3, (r1, 0x8)
 80118e8:	3303      	movi      	r3, 3
 80118ea:	c70d4840 	lsri      	r0, r13, 24
 80118ee:	b160      	st.w      	r3, (r1, 0x0)
 80118f0:	c50c4823 	lsli      	r3, r12, 8
 80118f4:	c50d4822 	lsli      	r2, r13, 8
 80118f8:	6cc0      	or      	r3, r0
 80118fa:	ea0c0000 	movi      	r12, 0
 80118fe:	ea2d1000 	movih      	r13, 4096
 8011902:	6cb0      	or      	r2, r12
 8011904:	6cf4      	or      	r3, r13
 8011906:	b143      	st.w      	r2, (r1, 0xc)
 8011908:	b164      	st.w      	r3, (r1, 0x10)
 801190a:	d96e2000 	ld.w      	r11, (r14, 0x0)
 801190e:	1401      	addi      	r14, r14, 4
 8011910:	783c      	jmp      	r15
 8011912:	3302      	movi      	r3, 2
 8011914:	b160      	st.w      	r3, (r1, 0x0)
 8011916:	d96e2000 	ld.w      	r11, (r14, 0x0)
 801191a:	1401      	addi      	r14, r14, 4
 801191c:	783c      	jmp      	r15
 801191e:	c58d2423 	or      	r3, r13, r12
 8011922:	e9030018 	bez      	r3, 0x8011952	// 8011952 <__unpack_d+0xde>
 8011926:	ea230008 	movih      	r3, 8
 801192a:	68f0      	and      	r3, r12
 801192c:	3b40      	cmpnei      	r3, 0
 801192e:	3201      	movi      	r2, 1
 8011930:	c4620c40 	inct      	r3, r2, 0
 8011934:	b160      	st.w      	r3, (r1, 0x0)
 8011936:	c50c482c 	lsli      	r12, r12, 8
 801193a:	c70d4843 	lsri      	r3, r13, 24
 801193e:	6f0c      	or      	r12, r3
 8011940:	c50d482d 	lsli      	r13, r13, 8
 8011944:	c76c282c 	bclri      	r12, r12, 27
 8011948:	dda12003 	st.w      	r13, (r1, 0xc)
 801194c:	dd812004 	st.w      	r12, (r1, 0x10)
 8011950:	07dd      	br      	0x801190a	// 801190a <__unpack_d+0x96>
 8011952:	3304      	movi      	r3, 4
 8011954:	b160      	st.w      	r3, (r1, 0x0)
 8011956:	07da      	br      	0x801190a	// 801190a <__unpack_d+0x96>

08011958 <__fpcmp_parts_d>:
 8011958:	9040      	ld.w      	r2, (r0, 0x0)
 801195a:	3301      	movi      	r3, 1
 801195c:	648c      	cmphs      	r3, r2
 801195e:	0830      	bt      	0x80119be	// 80119be <__fpcmp_parts_d+0x66>
 8011960:	d9812000 	ld.w      	r12, (r1, 0x0)
 8011964:	670c      	cmphs      	r3, r12
 8011966:	082c      	bt      	0x80119be	// 80119be <__fpcmp_parts_d+0x66>
 8011968:	3a44      	cmpnei      	r2, 4
 801196a:	0c1f      	bf      	0x80119a8	// 80119a8 <__fpcmp_parts_d+0x50>
 801196c:	eb4c0004 	cmpnei      	r12, 4
 8011970:	0c14      	bf      	0x8011998	// 8011998 <__fpcmp_parts_d+0x40>
 8011972:	3a42      	cmpnei      	r2, 2
 8011974:	0c0f      	bf      	0x8011992	// 8011992 <__fpcmp_parts_d+0x3a>
 8011976:	eb4c0002 	cmpnei      	r12, 2
 801197a:	0c1a      	bf      	0x80119ae	// 80119ae <__fpcmp_parts_d+0x56>
 801197c:	9041      	ld.w      	r2, (r0, 0x4)
 801197e:	d9812001 	ld.w      	r12, (r1, 0x4)
 8011982:	670a      	cmpne      	r2, r12
 8011984:	0c1f      	bf      	0x80119c2	// 80119c2 <__fpcmp_parts_d+0x6a>
 8011986:	3000      	movi      	r0, 0
 8011988:	2800      	subi      	r0, 1
 801198a:	3a40      	cmpnei      	r2, 0
 801198c:	c4030c20 	incf      	r0, r3, 0
 8011990:	783c      	jmp      	r15
 8011992:	eb4c0002 	cmpnei      	r12, 2
 8011996:	0c2a      	bf      	0x80119ea	// 80119ea <__fpcmp_parts_d+0x92>
 8011998:	9141      	ld.w      	r2, (r1, 0x4)
 801199a:	3300      	movi      	r3, 0
 801199c:	2b00      	subi      	r3, 1
 801199e:	3a40      	cmpnei      	r2, 0
 80119a0:	3001      	movi      	r0, 1
 80119a2:	c4030c20 	incf      	r0, r3, 0
 80119a6:	783c      	jmp      	r15
 80119a8:	eb4c0004 	cmpnei      	r12, 4
 80119ac:	0c21      	bf      	0x80119ee	// 80119ee <__fpcmp_parts_d+0x96>
 80119ae:	9061      	ld.w      	r3, (r0, 0x4)
 80119b0:	3000      	movi      	r0, 0
 80119b2:	3b40      	cmpnei      	r3, 0
 80119b4:	2800      	subi      	r0, 1
 80119b6:	3301      	movi      	r3, 1
 80119b8:	c4030c20 	incf      	r0, r3, 0
 80119bc:	783c      	jmp      	r15
 80119be:	6c0f      	mov      	r0, r3
 80119c0:	783c      	jmp      	r15
 80119c2:	d9a02002 	ld.w      	r13, (r0, 0x8)
 80119c6:	d9812002 	ld.w      	r12, (r1, 0x8)
 80119ca:	6771      	cmplt      	r12, r13
 80119cc:	0bdd      	bt      	0x8011986	// 8011986 <__fpcmp_parts_d+0x2e>
 80119ce:	6735      	cmplt      	r13, r12
 80119d0:	0c13      	bf      	0x80119f6	// 80119f6 <__fpcmp_parts_d+0x9e>
 80119d2:	3000      	movi      	r0, 0
 80119d4:	2800      	subi      	r0, 1
 80119d6:	3a40      	cmpnei      	r2, 0
 80119d8:	c4030c40 	inct      	r0, r3, 0
 80119dc:	07da      	br      	0x8011990	// 8011990 <__fpcmp_parts_d+0x38>
 80119de:	644c      	cmphs      	r3, r1
 80119e0:	0fdd      	bf      	0x801199a	// 801199a <__fpcmp_parts_d+0x42>
 80119e2:	64c6      	cmpne      	r1, r3
 80119e4:	0803      	bt      	0x80119ea	// 80119ea <__fpcmp_parts_d+0x92>
 80119e6:	6430      	cmphs      	r12, r0
 80119e8:	0fd9      	bf      	0x801199a	// 801199a <__fpcmp_parts_d+0x42>
 80119ea:	3000      	movi      	r0, 0
 80119ec:	07d2      	br      	0x8011990	// 8011990 <__fpcmp_parts_d+0x38>
 80119ee:	9161      	ld.w      	r3, (r1, 0x4)
 80119f0:	9001      	ld.w      	r0, (r0, 0x4)
 80119f2:	5b01      	subu      	r0, r3, r0
 80119f4:	07ce      	br      	0x8011990	// 8011990 <__fpcmp_parts_d+0x38>
 80119f6:	9064      	ld.w      	r3, (r0, 0x10)
 80119f8:	d9802003 	ld.w      	r12, (r0, 0xc)
 80119fc:	9103      	ld.w      	r0, (r1, 0xc)
 80119fe:	9124      	ld.w      	r1, (r1, 0x10)
 8011a00:	64c4      	cmphs      	r1, r3
 8011a02:	0c05      	bf      	0x8011a0c	// 8011a0c <__fpcmp_parts_d+0xb4>
 8011a04:	644e      	cmpne      	r3, r1
 8011a06:	0bec      	bt      	0x80119de	// 80119de <__fpcmp_parts_d+0x86>
 8011a08:	6700      	cmphs      	r0, r12
 8011a0a:	0bea      	bt      	0x80119de	// 80119de <__fpcmp_parts_d+0x86>
 8011a0c:	3000      	movi      	r0, 0
 8011a0e:	2800      	subi      	r0, 1
 8011a10:	3a40      	cmpnei      	r2, 0
 8011a12:	3301      	movi      	r3, 1
 8011a14:	c4030c20 	incf      	r0, r3, 0
 8011a18:	07bc      	br      	0x8011990	// 8011990 <__fpcmp_parts_d+0x38>
	...

08011a1c <__pack_f>:
 8011a1c:	9040      	ld.w      	r2, (r0, 0x0)
 8011a1e:	3a01      	cmphsi      	r2, 2
 8011a20:	9063      	ld.w      	r3, (r0, 0xc)
 8011a22:	9021      	ld.w      	r1, (r0, 0x4)
 8011a24:	0c2b      	bf      	0x8011a7a	// 8011a7a <__pack_f+0x5e>
 8011a26:	3a44      	cmpnei      	r2, 4
 8011a28:	0c23      	bf      	0x8011a6e	// 8011a6e <__pack_f+0x52>
 8011a2a:	3a42      	cmpnei      	r2, 2
 8011a2c:	0c24      	bf      	0x8011a74	// 8011a74 <__pack_f+0x58>
 8011a2e:	e9030021 	bez      	r3, 0x8011a70	// 8011a70 <__pack_f+0x54>
 8011a32:	9042      	ld.w      	r2, (r0, 0x8)
 8011a34:	3000      	movi      	r0, 0
 8011a36:	287d      	subi      	r0, 126
 8011a38:	6409      	cmplt      	r2, r0
 8011a3a:	082f      	bt      	0x8011a98	// 8011a98 <__pack_f+0x7c>
 8011a3c:	eb22007f 	cmplti      	r2, 128
 8011a40:	0c17      	bf      	0x8011a6e	// 8011a6e <__pack_f+0x52>
 8011a42:	e403207f 	andi      	r0, r3, 127
 8011a46:	eb400040 	cmpnei      	r0, 64
 8011a4a:	0c1e      	bf      	0x8011a86	// 8011a86 <__pack_f+0x6a>
 8011a4c:	233e      	addi      	r3, 63
 8011a4e:	e9830022 	blz      	r3, 0x8011a92	// 8011a92 <__pack_f+0x76>
 8011a52:	227e      	addi      	r2, 127
 8011a54:	c4e357a0 	zext      	r0, r3, 29, 7
 8011a58:	74c8      	zextb      	r3, r2
 8011a5a:	3200      	movi      	r2, 0
 8011a5c:	c4405ec0 	ins      	r2, r0, 22, 0
 8011a60:	c4435cf7 	ins      	r2, r3, 30, 23
 8011a64:	c4415c1f 	ins      	r2, r1, 31, 31
 8011a68:	f4021b60 	fmtvrl      	fr0, r2
 8011a6c:	783c      	jmp      	r15
 8011a6e:	33ff      	movi      	r3, 255
 8011a70:	3000      	movi      	r0, 0
 8011a72:	07f4      	br      	0x8011a5a	// 8011a5a <__pack_f+0x3e>
 8011a74:	3300      	movi      	r3, 0
 8011a76:	6c0f      	mov      	r0, r3
 8011a78:	07f1      	br      	0x8011a5a	// 8011a5a <__pack_f+0x3e>
 8011a7a:	c4e35783 	zext      	r3, r3, 28, 7
 8011a7e:	c6c32840 	bseti      	r0, r3, 22
 8011a82:	33ff      	movi      	r3, 255
 8011a84:	07eb      	br      	0x8011a5a	// 8011a5a <__pack_f+0x3e>
 8011a86:	e4032080 	andi      	r0, r3, 128
 8011a8a:	e900ffe2 	bez      	r0, 0x8011a4e	// 8011a4e <__pack_f+0x32>
 8011a8e:	233f      	addi      	r3, 64
 8011a90:	07df      	br      	0x8011a4e	// 8011a4e <__pack_f+0x32>
 8011a92:	4b61      	lsri      	r3, r3, 1
 8011a94:	227f      	addi      	r2, 128
 8011a96:	07df      	br      	0x8011a54	// 8011a54 <__pack_f+0x38>
 8011a98:	5849      	subu      	r2, r0, r2
 8011a9a:	3a39      	cmplti      	r2, 26
 8011a9c:	0fec      	bf      	0x8011a74	// 8011a74 <__pack_f+0x58>
 8011a9e:	3001      	movi      	r0, 1
 8011aa0:	c443404c 	lsr      	r12, r3, r2
 8011aa4:	c4404022 	lsl      	r2, r0, r2
 8011aa8:	2a00      	subi      	r2, 1
 8011aaa:	68c8      	and      	r3, r2
 8011aac:	3b40      	cmpnei      	r3, 0
 8011aae:	c4000503 	mvc      	r3
 8011ab2:	6cf0      	or      	r3, r12
 8011ab4:	e443207f 	andi      	r2, r3, 127
 8011ab8:	eb420040 	cmpnei      	r2, 64
 8011abc:	080e      	bt      	0x8011ad8	// 8011ad8 <__pack_f+0xbc>
 8011abe:	e4432080 	andi      	r2, r3, 128
 8011ac2:	e9020003 	bez      	r2, 0x8011ac8	// 8011ac8 <__pack_f+0xac>
 8011ac6:	233f      	addi      	r3, 64
 8011ac8:	c7a05022 	bmaski      	r2, 30
 8011acc:	64c8      	cmphs      	r2, r3
 8011ace:	6483      	mvcv      	r2
 8011ad0:	c4e357a0 	zext      	r0, r3, 29, 7
 8011ad4:	74c8      	zextb      	r3, r2
 8011ad6:	07c2      	br      	0x8011a5a	// 8011a5a <__pack_f+0x3e>
 8011ad8:	233e      	addi      	r3, 63
 8011ada:	07f7      	br      	0x8011ac8	// 8011ac8 <__pack_f+0xac>

08011adc <__GI_putchar>:
 8011adc:	14d0      	push      	r15
 8011ade:	1063      	lrw      	r3, 0x20000120	// 8011ae8 <__GI_putchar+0xc>
 8011ae0:	9320      	ld.w      	r1, (r3, 0x0)
 8011ae2:	e000009f 	bsr      	0x8011c20	// 8011c20 <__GI_putc>
 8011ae6:	1490      	pop      	r15
 8011ae8:	20000120 	.long	0x20000120

08011aec <__GI_puts>:
 8011aec:	14d1      	push      	r4, r15
 8011aee:	1085      	lrw      	r4, 0x20000120	// 8011b00 <__GI_puts+0x14>
 8011af0:	9420      	ld.w      	r1, (r4, 0x0)
 8011af2:	e0000009 	bsr      	0x8011b04	// 8011b04 <__GI_fputs>
 8011af6:	9420      	ld.w      	r1, (r4, 0x0)
 8011af8:	300a      	movi      	r0, 10
 8011afa:	e0001ae5 	bsr      	0x80150c4	// 80150c4 <fputc>
 8011afe:	1491      	pop      	r4, r15
 8011b00:	20000120 	.long	0x20000120

08011b04 <__GI_fputs>:
 8011b04:	14d5      	push      	r4-r8, r15
 8011b06:	6d03      	mov      	r4, r0
 8011b08:	6d87      	mov      	r6, r1
 8011b0a:	e9010018 	bez      	r1, 0x8011b3a	// 8011b3a <__GI_fputs+0x36>
 8011b0e:	e5010017 	addi      	r8, r1, 24
 8011b12:	6c23      	mov      	r0, r8
 8011b14:	e0000080 	bsr      	0x8011c14	// 8011c14 <__GI_os_critical_enter>
 8011b18:	8400      	ld.b      	r0, (r4, 0x0)
 8011b1a:	e9000014 	bez      	r0, 0x8011b42	// 8011b42 <__GI_fputs+0x3e>
 8011b1e:	3500      	movi      	r5, 0
 8011b20:	6dd7      	mov      	r7, r5
 8011b22:	2f00      	subi      	r7, 1
 8011b24:	0406      	br      	0x8011b30	// 8011b30 <__GI_fputs+0x2c>
 8011b26:	2400      	addi      	r4, 1
 8011b28:	8400      	ld.b      	r0, (r4, 0x0)
 8011b2a:	2500      	addi      	r5, 1
 8011b2c:	e900000c 	bez      	r0, 0x8011b44	// 8011b44 <__GI_fputs+0x40>
 8011b30:	6c5b      	mov      	r1, r6
 8011b32:	e0001ac9 	bsr      	0x80150c4	// 80150c4 <fputc>
 8011b36:	65c2      	cmpne      	r0, r7
 8011b38:	0bf7      	bt      	0x8011b26	// 8011b26 <__GI_fputs+0x22>
 8011b3a:	3500      	movi      	r5, 0
 8011b3c:	2d00      	subi      	r5, 1
 8011b3e:	6c17      	mov      	r0, r5
 8011b40:	1495      	pop      	r4-r8, r15
 8011b42:	6d43      	mov      	r5, r0
 8011b44:	6c23      	mov      	r0, r8
 8011b46:	e0000069 	bsr      	0x8011c18	// 8011c18 <__GI_os_critical_exit>
 8011b4a:	6c17      	mov      	r0, r5
 8011b4c:	1495      	pop      	r4-r8, r15
	...

08011b50 <__strlen_fast>:
 8011b50:	6c43      	mov      	r1, r0
 8011b52:	e4002003 	andi      	r0, r0, 3
 8011b56:	e9000009 	bez      	r0, 0x8011b68	// 8011b68 <__strlen_fast+0x18>
 8011b5a:	3000      	movi      	r0, 0
 8011b5c:	8140      	ld.b      	r2, (r1, 0x0)
 8011b5e:	e9020017 	bez      	r2, 0x8011b8c	// 8011b8c <__strlen_fast+0x3c>
 8011b62:	2100      	addi      	r1, 1
 8011b64:	2000      	addi      	r0, 1
 8011b66:	07fb      	br      	0x8011b5c	// 8011b5c <__strlen_fast+0xc>
 8011b68:	9140      	ld.w      	r2, (r1, 0x0)
 8011b6a:	680b      	tstnbz      	r2
 8011b6c:	0c04      	bf      	0x8011b74	// 8011b74 <__strlen_fast+0x24>
 8011b6e:	2103      	addi      	r1, 4
 8011b70:	2003      	addi      	r0, 4
 8011b72:	07fb      	br      	0x8011b68	// 8011b68 <__strlen_fast+0x18>
 8011b74:	c4027103 	xtrb3      	r3, r2
 8011b78:	0c0a      	bf      	0x8011b8c	// 8011b8c <__strlen_fast+0x3c>
 8011b7a:	2000      	addi      	r0, 1
 8011b7c:	c4027083 	xtrb2      	r3, r2
 8011b80:	0c06      	bf      	0x8011b8c	// 8011b8c <__strlen_fast+0x3c>
 8011b82:	2000      	addi      	r0, 1
 8011b84:	c4027043 	xtrb1      	r3, r2
 8011b88:	0c02      	bf      	0x8011b8c	// 8011b8c <__strlen_fast+0x3c>
 8011b8a:	2000      	addi      	r0, 1
 8011b8c:	783c      	jmp      	r15
	...

08011b90 <__memcpy_fast>:
 8011b90:	14c1      	push      	r4
 8011b92:	6f03      	mov      	r12, r0
 8011b94:	c401242d 	or      	r13, r1, r0
 8011b98:	e48d2003 	andi      	r4, r13, 3
 8011b9c:	e904000e 	bez      	r4, 0x8011bb8	// 8011bb8 <__memcpy_fast+0x28>
 8011ba0:	e902000b 	bez      	r2, 0x8011bb6	// 8011bb6 <__memcpy_fast+0x26>
 8011ba4:	8160      	ld.b      	r3, (r1, 0x0)
 8011ba6:	2100      	addi      	r1, 1
 8011ba8:	2a00      	subi      	r2, 1
 8011baa:	dc6c0000 	st.b      	r3, (r12, 0x0)
 8011bae:	e58c0000 	addi      	r12, r12, 1
 8011bb2:	e922fff9 	bnez      	r2, 0x8011ba4	// 8011ba4 <__memcpy_fast+0x14>
 8011bb6:	1481      	pop      	r4
 8011bb8:	3a2f      	cmplti      	r2, 16
 8011bba:	0815      	bt      	0x8011be4	// 8011be4 <__memcpy_fast+0x54>
 8011bbc:	d9a12000 	ld.w      	r13, (r1, 0x0)
 8011bc0:	9161      	ld.w      	r3, (r1, 0x4)
 8011bc2:	9182      	ld.w      	r4, (r1, 0x8)
 8011bc4:	ddac2000 	st.w      	r13, (r12, 0x0)
 8011bc8:	d9a12003 	ld.w      	r13, (r1, 0xc)
 8011bcc:	dc6c2001 	st.w      	r3, (r12, 0x4)
 8011bd0:	dc8c2002 	st.w      	r4, (r12, 0x8)
 8011bd4:	ddac2003 	st.w      	r13, (r12, 0xc)
 8011bd8:	2a0f      	subi      	r2, 16
 8011bda:	210f      	addi      	r1, 16
 8011bdc:	e58c000f 	addi      	r12, r12, 16
 8011be0:	3a2f      	cmplti      	r2, 16
 8011be2:	0fed      	bf      	0x8011bbc	// 8011bbc <__memcpy_fast+0x2c>
 8011be4:	3a23      	cmplti      	r2, 4
 8011be6:	080a      	bt      	0x8011bfa	// 8011bfa <__memcpy_fast+0x6a>
 8011be8:	9160      	ld.w      	r3, (r1, 0x0)
 8011bea:	2a03      	subi      	r2, 4
 8011bec:	2103      	addi      	r1, 4
 8011bee:	dc6c2000 	st.w      	r3, (r12, 0x0)
 8011bf2:	e58c0003 	addi      	r12, r12, 4
 8011bf6:	3a23      	cmplti      	r2, 4
 8011bf8:	0ff8      	bf      	0x8011be8	// 8011be8 <__memcpy_fast+0x58>
 8011bfa:	e902ffde 	bez      	r2, 0x8011bb6	// 8011bb6 <__memcpy_fast+0x26>
 8011bfe:	8160      	ld.b      	r3, (r1, 0x0)
 8011c00:	2100      	addi      	r1, 1
 8011c02:	2a00      	subi      	r2, 1
 8011c04:	dc6c0000 	st.b      	r3, (r12, 0x0)
 8011c08:	e58c0000 	addi      	r12, r12, 1
 8011c0c:	07f7      	br      	0x8011bfa	// 8011bfa <__memcpy_fast+0x6a>
	...

08011c10 <__GI_os_critical_open>:
 8011c10:	3000      	movi      	r0, 0
 8011c12:	783c      	jmp      	r15

08011c14 <__GI_os_critical_enter>:
 8011c14:	3000      	movi      	r0, 0
 8011c16:	783c      	jmp      	r15

08011c18 <__GI_os_critical_exit>:
 8011c18:	3000      	movi      	r0, 0
 8011c1a:	783c      	jmp      	r15

08011c1c <__GI_os_critical_close>:
 8011c1c:	3000      	movi      	r0, 0
 8011c1e:	783c      	jmp      	r15

08011c20 <__GI_putc>:
 8011c20:	14d0      	push      	r15
 8011c22:	e0001a51 	bsr      	0x80150c4	// 80150c4 <fputc>
 8011c26:	1490      	pop      	r15

08011c28 <num2char>:
 * g		
 * l		
 * chr	
 */
void num2char(uint8_t *str, double number, uint8_t g, uint8_t l, char *chr)
{
 8011c28:	ebe00058 	push      	r4-r11, r15, r16-r17
 8011c2c:	6d83      	mov      	r6, r0
 8011c2e:	6e47      	mov      	r9, r1
 8011c30:	6d4b      	mov      	r5, r2
 8011c32:	6ecf      	mov      	r11, r3
 8011c34:	d90e200c 	ld.w      	r8, (r14, 0x30)
 8011c38:	d8ee002c 	ld.b      	r7, (r14, 0x2c)
	assert(str != NULL);
 8011c3c:	e900006f 	bez      	r0, 0x8011d1a	// 8011d1a <num2char+0xf2>
	assert(chr != NULL);
 8011c40:	e9080067 	bez      	r8, 0x8011d0e	// 8011d0e <num2char+0xe6>
	
    uint8_t i;
    int temp = number/1;
 8011c44:	6c07      	mov      	r0, r1
 8011c46:	6c4b      	mov      	r1, r2
 8011c48:	e3fffc48 	bsr      	0x80114d8	// 80114d8 <__fixdfsi>
    double t2 = 0.0;
    for (i = 1; i<=g; i++)
 8011c4c:	e90b0025 	bez      	r11, 0x8011c96	// 8011c96 <num2char+0x6e>
 8011c50:	3301      	movi      	r3, 1
    {
        if (temp==0)
            str[g-i] = table[0];
        else
            str[g-i] = table[temp%10];
 8011c52:	ea920036 	lrw      	r18, 0x8015360	// 8011d28 <num2char+0x100>
 8011c56:	310a      	movi      	r1, 10
            str[g-i] = table[0];
 8011c58:	ea0d0030 	movi      	r13, 48
 8011c5c:	040b      	br      	0x8011c72	// 8011c72 <num2char+0x4a>
 8011c5e:	c46b0082 	subu      	r2, r11, r3
    for (i = 1; i<=g; i++)
 8011c62:	2300      	addi      	r3, 1
 8011c64:	74cc      	zextb      	r3, r3
 8011c66:	64ec      	cmphs      	r11, r3
            str[g-i] = table[0];
 8011c68:	d446002d 	str.b      	r13, (r6, r2 << 0)
        temp = temp/10;
 8011c6c:	c4208040 	divs      	r0, r0, r1
    for (i = 1; i<=g; i++)
 8011c70:	0c13      	bf      	0x8011c96	// 8011c96 <num2char+0x6e>
        if (temp==0)
 8011c72:	e900fff6 	bez      	r0, 0x8011c5e	// 8011c5e <num2char+0x36>
            str[g-i] = table[temp%10];
 8011c76:	c46b008c 	subu      	r12, r11, r3
 8011c7a:	c4208042 	divs      	r2, r0, r1
    for (i = 1; i<=g; i++)
 8011c7e:	2300      	addi      	r3, 1
            str[g-i] = table[temp%10];
 8011c80:	7c84      	mult      	r2, r1
    for (i = 1; i<=g; i++)
 8011c82:	74cc      	zextb      	r3, r3
            str[g-i] = table[temp%10];
 8011c84:	5849      	subu      	r2, r0, r2
    for (i = 1; i<=g; i++)
 8011c86:	64ec      	cmphs      	r11, r3
            str[g-i] = table[temp%10];
 8011c88:	d0520022 	ldr.b      	r2, (r18, r2 << 0)
 8011c8c:	d5860022 	str.b      	r2, (r6, r12 << 0)
        temp = temp/10;
 8011c90:	c4208040 	divs      	r0, r0, r1
    for (i = 1; i<=g; i++)
 8011c94:	0bef      	bt      	0x8011c72	// 8011c72 <num2char+0x4a>
    }
	if(0 == l)
 8011c96:	e9070031 	bez      	r7, 0x8011cf8	// 8011cf8 <num2char+0xd0>
		goto end;
    *(str+g) = '.';
 8011c9a:	332e      	movi      	r3, 46
 8011c9c:	d5660023 	str.b      	r3, (r6, r11 << 0)
 8011ca0:	3401      	movi      	r4, 1
 8011ca2:	ea8a0022 	lrw      	r10, 0x8015360	// 8011d28 <num2char+0x100>
    temp = 0;
    t2 = number;
    for(i=1; i<=l; i++)
    {
        temp = t2*10;
        str[g+i] = table[temp%10];
 8011ca6:	ea10000a 	movi      	r16, 10
        temp = t2*10;
 8011caa:	ea234024 	movih      	r3, 16420
 8011cae:	3200      	movi      	r2, 0
 8011cb0:	6c27      	mov      	r0, r9
 8011cb2:	6c57      	mov      	r1, r5
 8011cb4:	e3fff9da 	bsr      	0x8011068	// 8011068 <__muldf3>
 8011cb8:	6e43      	mov      	r9, r0
 8011cba:	6d47      	mov      	r5, r1
 8011cbc:	e3fffc0e 	bsr      	0x80114d8	// 80114d8 <__fixdfsi>
        str[g+i] = table[temp%10];
 8011cc0:	c4860031 	addu      	r17, r6, r4
 8011cc4:	c6008043 	divs      	r3, r0, r16
    for(i=1; i<=l; i++)
 8011cc8:	2400      	addi      	r4, 1
        str[g+i] = table[temp%10];
 8011cca:	c6038423 	mult      	r3, r3, r16
    for(i=1; i<=l; i++)
 8011cce:	7510      	zextb      	r4, r4
        str[g+i] = table[temp%10];
 8011cd0:	600e      	subu      	r0, r3
    for(i=1; i<=l; i++)
 8011cd2:	651c      	cmphs      	r7, r4
        str[g+i] = table[temp%10];
 8011cd4:	d00a0023 	ldr.b      	r3, (r10, r0 << 0)
 8011cd8:	d5710023 	str.b      	r3, (r17, r11 << 0)
    for(i=1; i<=l; i++)
 8011cdc:	0be7      	bt      	0x8011caa	// 8011caa <num2char+0x82>
        t2 = t2*10;
    }
	//
	memcpy(str+g+l+1,chr,strlen(chr)+1);
 8011cde:	6c23      	mov      	r0, r8
 8011ce0:	2700      	addi      	r7, 1
 8011ce2:	e3ffff37 	bsr      	0x8011b50	// 8011b50 <__strlen_fast>
 8011ce6:	62dc      	addu      	r11, r7
 8011ce8:	5842      	addi      	r2, r0, 1
 8011cea:	6c63      	mov      	r1, r8
 8011cec:	c5660020 	addu      	r0, r6, r11
 8011cf0:	e3ffff50 	bsr      	0x8011b90	// 8011b90 <__memcpy_fast>
	return ;
	end:
	//
	memcpy(str+g+l,chr,strlen(chr)+1);
}
 8011cf4:	ebc00058 	pop      	r4-r11, r15, r16-r17
	memcpy(str+g+l,chr,strlen(chr)+1);
 8011cf8:	6c23      	mov      	r0, r8
 8011cfa:	e3ffff2b 	bsr      	0x8011b50	// 8011b50 <__strlen_fast>
 8011cfe:	5842      	addi      	r2, r0, 1
 8011d00:	6c63      	mov      	r1, r8
 8011d02:	c5660020 	addu      	r0, r6, r11
 8011d06:	e3ffff45 	bsr      	0x8011b90	// 8011b90 <__memcpy_fast>
}
 8011d0a:	ebc00058 	pop      	r4-r11, r15, r16-r17
	assert(chr != NULL);
 8011d0e:	1068      	lrw      	r3, 0x8015354	// 8011d2c <num2char+0x104>
 8011d10:	1048      	lrw      	r2, 0x8015318	// 8011d30 <num2char+0x108>
 8011d12:	3131      	movi      	r1, 49
 8011d14:	1008      	lrw      	r0, 0x8015348	// 8011d34 <num2char+0x10c>
 8011d16:	e00019ff 	bsr      	0x8015114	// 8015114 <__assert_fail>
	assert(str != NULL);
 8011d1a:	1068      	lrw      	r3, 0x801533c	// 8011d38 <num2char+0x110>
 8011d1c:	1045      	lrw      	r2, 0x8015318	// 8011d30 <num2char+0x108>
 8011d1e:	3130      	movi      	r1, 48
 8011d20:	1005      	lrw      	r0, 0x8015348	// 8011d34 <num2char+0x10c>
 8011d22:	e00019f9 	bsr      	0x8015114	// 8015114 <__assert_fail>
 8011d26:	0000      	.short	0x0000
 8011d28:	08015360 	.long	0x08015360
 8011d2c:	08015354 	.long	0x08015354
 8011d30:	08015318 	.long	0x08015318
 8011d34:	08015348 	.long	0x08015348
 8011d38:	0801533c 	.long	0x0801533c

08011d3c <time2string>:


void time2string(uint8_t *str, uint8_t Hour, uint8_t Min, uint8_t Sec)
{
 8011d3c:	14d0      	push      	r15
	assert(str != NULL);
 8011d3e:	e900006d 	bez      	r0, 0x8011e18	// 8011e18 <time2string+0xdc>
	assert(Hour <= 999);
	assert(Min <= 59);
 8011d42:	ea0c003b 	movi      	r12, 59
 8011d46:	64b0      	cmphs      	r12, r2
 8011d48:	0c62      	bf      	0x8011e0c	// 8011e0c <time2string+0xd0>
	assert(Sec <= 59);
 8011d4a:	64f0      	cmphs      	r12, r3
 8011d4c:	0c5a      	bf      	0x8011e00	// 8011e00 <time2string+0xc4>
 8011d4e:	e5800001 	addi      	r12, r0, 2
 8011d52:	e6601000 	subi      	r19, r0, 1
    for (i = 1; i<=hour_len; i++)
    {
        if (temp==0)
            dst_str[hour_len-i] = table[0];
        else
            dst_str[hour_len-i] = table[temp%10];
 8011d56:	ea950034 	lrw      	r21, 0x8015360	// 8011e24 <time2string+0xe8>
 8011d5a:	ea12000a 	movi      	r18, 10
            dst_str[hour_len-i] = table[0];
 8011d5e:	ea140030 	movi      	r20, 48
        if (temp==0)
 8011d62:	e9210035 	bnez      	r1, 0x8011dcc	// 8011dcc <time2string+0x90>
            dst_str[hour_len-i] = table[0];
 8011d66:	de8c0000 	st.b      	r20, (r12, 0x0)
 8011d6a:	e58c1000 	subi      	r12, r12, 1
    for (i = 1; i<=hour_len; i++)
 8011d6e:	c5930480 	cmpne      	r19, r12
        temp = temp/10;
 8011d72:	c6418041 	divs      	r1, r1, r18
    for (i = 1; i<=hour_len; i++)
 8011d76:	0bf6      	bt      	0x8011d62	// 8011d62 <time2string+0x26>
    }
	
	dst_str+=3;
    *dst_str++ = ':';
 8011d78:	313a      	movi      	r1, 58
 8011d7a:	a023      	st.b      	r1, (r0, 0x3)
	
	//Min
	temp = Min/1;
	for (i = 1; i<=min_len; i++)
    {
        if (temp==0)
 8011d7c:	e9020033 	bez      	r2, 0x8011de2	// 8011de2 <time2string+0xa6>
            dst_str[min_len-i] = table[0];
        else
            dst_str[min_len-i] = table[temp%10];
 8011d80:	c6428041 	divs      	r1, r2, r18
 8011d84:	ea8c0028 	lrw      	r12, 0x8015360	// 8011e24 <time2string+0xe8>
 8011d88:	c6418432 	mult      	r18, r1, r18
 8011d8c:	c6420092 	subu      	r18, r2, r18
 8011d90:	d24c0022 	ldr.b      	r2, (r12, r18 << 0)
 8011d94:	a045      	st.b      	r2, (r0, 0x5)
        if (temp==0)
 8011d96:	e9010028 	bez      	r1, 0x8011de6	// 8011de6 <time2string+0xaa>
            dst_str[min_len-i] = table[temp%10];
 8011d9a:	d02c0022 	ldr.b      	r2, (r12, r1 << 0)
 8011d9e:	a044      	st.b      	r2, (r0, 0x4)
        temp = temp/10;
    }
	dst_str+=2;
	
	//1":"
    *dst_str++ = ':';
 8011da0:	323a      	movi      	r2, 58
 8011da2:	a046      	st.b      	r2, (r0, 0x6)
	
	//Sec
	temp = Sec/1;
	for (i = 1; i<=sec_len; i++)
    {
        if (temp==0)
 8011da4:	e9030027 	bez      	r3, 0x8011df2	// 8011df2 <time2string+0xb6>
            dst_str[sec_len-i] = table[0];
        else
            dst_str[sec_len-i] = table[temp%10];
 8011da8:	320a      	movi      	r2, 10
 8011daa:	c4438041 	divs      	r1, r3, r2
 8011dae:	ea8c001e 	lrw      	r12, 0x8015360	// 8011e24 <time2string+0xe8>
 8011db2:	7c84      	mult      	r2, r1
 8011db4:	60ca      	subu      	r3, r2
 8011db6:	d06c0023 	ldr.b      	r3, (r12, r3 << 0)
 8011dba:	a068      	st.b      	r3, (r0, 0x8)
        if (temp==0)
 8011dbc:	e901001d 	bez      	r1, 0x8011df6	// 8011df6 <time2string+0xba>
            dst_str[sec_len-i] = table[temp%10];
 8011dc0:	d02c0023 	ldr.b      	r3, (r12, r1 << 0)
 8011dc4:	a067      	st.b      	r3, (r0, 0x7)
        temp = temp/10;
    }
	dst_str+=2;
	
	//2":"
    *dst_str++ = '\0';
 8011dc6:	3300      	movi      	r3, 0
 8011dc8:	a069      	st.b      	r3, (r0, 0x9)
}
 8011dca:	1490      	pop      	r15
            dst_str[hour_len-i] = table[temp%10];
 8011dcc:	c641804d 	divs      	r13, r1, r18
 8011dd0:	c64d842d 	mult      	r13, r13, r18
 8011dd4:	c5a1008d 	subu      	r13, r1, r13
 8011dd8:	d1b5002d 	ldr.b      	r13, (r21, r13 << 0)
 8011ddc:	ddac0000 	st.b      	r13, (r12, 0x0)
 8011de0:	07c5      	br      	0x8011d6a	// 8011d6a <time2string+0x2e>
            dst_str[min_len-i] = table[0];
 8011de2:	3230      	movi      	r2, 48
 8011de4:	a045      	st.b      	r2, (r0, 0x5)
 8011de6:	3230      	movi      	r2, 48
 8011de8:	a044      	st.b      	r2, (r0, 0x4)
    *dst_str++ = ':';
 8011dea:	323a      	movi      	r2, 58
 8011dec:	a046      	st.b      	r2, (r0, 0x6)
        if (temp==0)
 8011dee:	e923ffdd 	bnez      	r3, 0x8011da8	// 8011da8 <time2string+0x6c>
            dst_str[sec_len-i] = table[0];
 8011df2:	3330      	movi      	r3, 48
 8011df4:	a068      	st.b      	r3, (r0, 0x8)
 8011df6:	3330      	movi      	r3, 48
 8011df8:	a067      	st.b      	r3, (r0, 0x7)
    *dst_str++ = '\0';
 8011dfa:	3300      	movi      	r3, 0
 8011dfc:	a069      	st.b      	r3, (r0, 0x9)
}
 8011dfe:	1490      	pop      	r15
	assert(Sec <= 59);
 8011e00:	106a      	lrw      	r3, 0x8015378	// 8011e28 <time2string+0xec>
 8011e02:	104b      	lrw      	r2, 0x8015324	// 8011e2c <time2string+0xf0>
 8011e04:	3157      	movi      	r1, 87
 8011e06:	100b      	lrw      	r0, 0x8015348	// 8011e30 <time2string+0xf4>
 8011e08:	e0001986 	bsr      	0x8015114	// 8015114 <__assert_fail>
	assert(Min <= 59);
 8011e0c:	106a      	lrw      	r3, 0x801536c	// 8011e34 <time2string+0xf8>
 8011e0e:	1048      	lrw      	r2, 0x8015324	// 8011e2c <time2string+0xf0>
 8011e10:	3156      	movi      	r1, 86
 8011e12:	1008      	lrw      	r0, 0x8015348	// 8011e30 <time2string+0xf4>
 8011e14:	e0001980 	bsr      	0x8015114	// 8015114 <__assert_fail>
	assert(str != NULL);
 8011e18:	1068      	lrw      	r3, 0x801533c	// 8011e38 <time2string+0xfc>
 8011e1a:	1045      	lrw      	r2, 0x8015324	// 8011e2c <time2string+0xf0>
 8011e1c:	3154      	movi      	r1, 84
 8011e1e:	1005      	lrw      	r0, 0x8015348	// 8011e30 <time2string+0xf4>
 8011e20:	e000197a 	bsr      	0x8015114	// 8015114 <__assert_fail>
 8011e24:	08015360 	.long	0x08015360
 8011e28:	08015378 	.long	0x08015378
 8011e2c:	08015324 	.long	0x08015324
 8011e30:	08015348 	.long	0x08015348
 8011e34:	0801536c 	.long	0x0801536c
 8011e38:	0801533c 	.long	0x0801533c

08011e3c <Write_Flash>:
	}
	
}

void Write_Flash(INA226_VALUE *ina226_value)
{
 8011e3c:	14d1      	push      	r4, r15
	uint16_t state;
	state = HAL_FLASH_Write(Fash_Addr, (uint8_t *)&ina226_value->Time.All_Sec, sizeof(ina226_value->Time.All_Sec)/sizeof(uint8_t));
 8011e3e:	e4200013 	addi      	r1, r0, 20
{
 8011e42:	6d03      	mov      	r4, r0
	state = HAL_FLASH_Write(Fash_Addr, (uint8_t *)&ina226_value->Time.All_Sec, sizeof(ina226_value->Time.All_Sec)/sizeof(uint8_t));
 8011e44:	3208      	movi      	r2, 8
 8011e46:	ea200008 	movih      	r0, 8
 8011e4a:	e0000baf 	bsr      	0x80135a8	// 80135a8 <HAL_FLASH_Write>
	if(state == HAL_ERROR)
 8011e4e:	7401      	zexth      	r0, r0
 8011e50:	3841      	cmpnei      	r0, 1
 8011e52:	0c11      	bf      	0x8011e74	// 8011e74 <Write_Flash+0x38>
	if(state == HAL_ERROR)
	{
		printf("write FLASH er...\r\n");
	}
	*/ 
	state = HAL_FLASH_Write(Fash_Addr+20, (uint8_t *)&ina226_value->mAh, sizeof(ina226_value->mAh)/sizeof(uint8_t));
 8011e54:	3204      	movi      	r2, 4
 8011e56:	e4240023 	addi      	r1, r4, 36
 8011e5a:	c6405020 	bmaski      	r0, 19
 8011e5e:	2014      	addi      	r0, 21
 8011e60:	e0000ba4 	bsr      	0x80135a8	// 80135a8 <HAL_FLASH_Write>
	if(state == HAL_ERROR)
 8011e64:	7401      	zexth      	r0, r0
 8011e66:	3841      	cmpnei      	r0, 1
 8011e68:	0c02      	bf      	0x8011e6c	// 8011e6c <Write_Flash+0x30>
	{
		printf("write FLASH er...\r\n");
	}
}
 8011e6a:	1491      	pop      	r4, r15
		printf("write FLASH er...\r\n");
 8011e6c:	1004      	lrw      	r0, 0x8015304	// 8011e7c <Write_Flash+0x40>
 8011e6e:	e3fffe3f 	bsr      	0x8011aec	// 8011aec <__GI_puts>
}
 8011e72:	1491      	pop      	r4, r15
		printf("write FLASH er...\r\n");
 8011e74:	1002      	lrw      	r0, 0x8015304	// 8011e7c <Write_Flash+0x40>
 8011e76:	e3fffe3b 	bsr      	0x8011aec	// 8011aec <__GI_puts>
 8011e7a:	07ed      	br      	0x8011e54	// 8011e54 <Write_Flash+0x18>
 8011e7c:	08015304 	.long	0x08015304

08011e80 <Read_Flash>:


void Read_Flash(INA226_VALUE *ina226_value)
{
 8011e80:	14d1      	push      	r4, r15
	uint16_t state;
	state = HAL_FLASH_Read(Fash_Addr, (uint8_t *)&ina226_value->Time.All_Sec, sizeof(ina226_value->Time.All_Sec)/sizeof(uint8_t));
 8011e82:	e4200013 	addi      	r1, r0, 20
{
 8011e86:	6d03      	mov      	r4, r0
	state = HAL_FLASH_Read(Fash_Addr, (uint8_t *)&ina226_value->Time.All_Sec, sizeof(ina226_value->Time.All_Sec)/sizeof(uint8_t));
 8011e88:	3208      	movi      	r2, 8
 8011e8a:	ea200008 	movih      	r0, 8
 8011e8e:	e0000b55 	bsr      	0x8013538	// 8013538 <HAL_FLASH_Read>
	if(state == HAL_ERROR)
 8011e92:	7401      	zexth      	r0, r0
 8011e94:	3841      	cmpnei      	r0, 1
 8011e96:	0c11      	bf      	0x8011eb8	// 8011eb8 <Read_Flash+0x38>
	if(state == HAL_ERROR)
	{
		printf("write FLASH er...\r\n");
	}
	*/
	state = HAL_FLASH_Read(Fash_Addr+20, (uint8_t *)&ina226_value->mAh, sizeof(ina226_value->mAh)/sizeof(uint8_t));
 8011e98:	3204      	movi      	r2, 4
 8011e9a:	e4240023 	addi      	r1, r4, 36
 8011e9e:	c6405020 	bmaski      	r0, 19
 8011ea2:	2014      	addi      	r0, 21
 8011ea4:	e0000b4a 	bsr      	0x8013538	// 8013538 <HAL_FLASH_Read>
	if(state == HAL_ERROR)
 8011ea8:	7401      	zexth      	r0, r0
 8011eaa:	3841      	cmpnei      	r0, 1
 8011eac:	0c02      	bf      	0x8011eb0	// 8011eb0 <Read_Flash+0x30>
	{
		printf("write FLASH er...\r\n");
	}
}
 8011eae:	1491      	pop      	r4, r15
		printf("write FLASH er...\r\n");
 8011eb0:	1004      	lrw      	r0, 0x8015304	// 8011ec0 <Read_Flash+0x40>
 8011eb2:	e3fffe1d 	bsr      	0x8011aec	// 8011aec <__GI_puts>
}
 8011eb6:	1491      	pop      	r4, r15
		printf("write FLASH er...\r\n");
 8011eb8:	1002      	lrw      	r0, 0x8015304	// 8011ec0 <Read_Flash+0x40>
 8011eba:	e3fffe19 	bsr      	0x8011aec	// 8011aec <__GI_puts>
 8011ebe:	07ed      	br      	0x8011e98	// 8011e98 <Read_Flash+0x18>
 8011ec0:	08015304 	.long	0x08015304

08011ec4 <OLED_Show>:

void OLED_Show(INA226_VALUE *ina226_value)
{
 8011ec4:	14d3      	push      	r4-r6, r15
 8011ec6:	1421      	subi      	r14, r14, 4
 8011ec8:	f40e2408 	fsts      	fr8, (r14, 0x0)
 8011ecc:	142c      	subi      	r14, r14, 48
	uint8_t string[40] = {0};
	num2char(string,ina226_value->Bus_V/1000,2,3,"V");
 8011ece:	ea23447a 	movih      	r3, 17530
 8011ed2:	f4002000 	flds      	fr0, (r0, 0x0)
 8011ed6:	f4031b68 	fmtvrl      	fr8, r3
	uint8_t string[40] = {0};
 8011eda:	3400      	movi      	r4, 0
	num2char(string,ina226_value->Bus_V/1000,2,3,"V");
 8011edc:	f5000300 	fdivs      	fr0, fr0, fr8
{
 8011ee0:	6d43      	mov      	r5, r0
	uint8_t string[40] = {0};
 8011ee2:	b882      	st.w      	r4, (r14, 0x8)
 8011ee4:	b883      	st.w      	r4, (r14, 0xc)
 8011ee6:	b884      	st.w      	r4, (r14, 0x10)
 8011ee8:	b885      	st.w      	r4, (r14, 0x14)
 8011eea:	b886      	st.w      	r4, (r14, 0x18)
 8011eec:	b887      	st.w      	r4, (r14, 0x1c)
 8011eee:	b888      	st.w      	r4, (r14, 0x20)
 8011ef0:	b889      	st.w      	r4, (r14, 0x24)
 8011ef2:	b88a      	st.w      	r4, (r14, 0x28)
 8011ef4:	b88b      	st.w      	r4, (r14, 0x2c)
	num2char(string,ina226_value->Bus_V/1000,2,3,"V");
 8011ef6:	e3fff70b 	bsr      	0x8010d0c	// 8010d0c <__extendsfdf2>
 8011efa:	6f47      	mov      	r13, r1
 8011efc:	3603      	movi      	r6, 3
 8011efe:	1170      	lrw      	r3, 0x80152f4	// 8011fbc <OLED_Show+0xf8>
 8011f00:	6cb7      	mov      	r2, r13
 8011f02:	b861      	st.w      	r3, (r14, 0x4)
 8011f04:	6c43      	mov      	r1, r0
 8011f06:	b8c0      	st.w      	r6, (r14, 0x0)
 8011f08:	1802      	addi      	r0, r14, 8
 8011f0a:	3302      	movi      	r3, 2
 8011f0c:	e3fffe8e 	bsr      	0x8011c28	// 8011c28 <num2char>
	OLED_ShowString(0,0,string,16);
 8011f10:	1a02      	addi      	r2, r14, 8
 8011f12:	3310      	movi      	r3, 16
 8011f14:	6c53      	mov      	r1, r4
 8011f16:	6c13      	mov      	r0, r4
 8011f18:	e0000424 	bsr      	0x8012760	// 8012760 <OLED_ShowString>
	
	num2char(string,ina226_value->Current/1000,1,3,"A");
 8011f1c:	f4052020 	flds      	fr0, (r5, 0x8)
 8011f20:	f5000300 	fdivs      	fr0, fr0, fr8
 8011f24:	e3fff6f4 	bsr      	0x8010d0c	// 8010d0c <__extendsfdf2>
 8011f28:	6f47      	mov      	r13, r1
 8011f2a:	1166      	lrw      	r3, 0x80152f8	// 8011fc0 <OLED_Show+0xfc>
 8011f2c:	6cb7      	mov      	r2, r13
 8011f2e:	b861      	st.w      	r3, (r14, 0x4)
 8011f30:	6c43      	mov      	r1, r0
 8011f32:	b8c0      	st.w      	r6, (r14, 0x0)
 8011f34:	1802      	addi      	r0, r14, 8
 8011f36:	3301      	movi      	r3, 1
 8011f38:	e3fffe78 	bsr      	0x8011c28	// 8011c28 <num2char>
	//printf(" string:  %s %d  %d ",string,ina226_value->Current,ina226_value->Current/1000);
	OLED_ShowString(68,0,string,16);
 8011f3c:	1a02      	addi      	r2, r14, 8
 8011f3e:	3310      	movi      	r3, 16
 8011f40:	6c53      	mov      	r1, r4
 8011f42:	3044      	movi      	r0, 68
 8011f44:	e000040e 	bsr      	0x8012760	// 8012760 <OLED_ShowString>
	
	num2char(string,ina226_value->Power,2,3,"W");
 8011f48:	f4052030 	flds      	fr0, (r5, 0xc)
 8011f4c:	e3fff6e0 	bsr      	0x8010d0c	// 8010d0c <__extendsfdf2>
 8011f50:	6f47      	mov      	r13, r1
 8011f52:	107d      	lrw      	r3, 0x80152fc	// 8011fc4 <OLED_Show+0x100>
 8011f54:	6cb7      	mov      	r2, r13
 8011f56:	b861      	st.w      	r3, (r14, 0x4)
 8011f58:	6c43      	mov      	r1, r0
 8011f5a:	b8c0      	st.w      	r6, (r14, 0x0)
 8011f5c:	1802      	addi      	r0, r14, 8
 8011f5e:	3302      	movi      	r3, 2
 8011f60:	e3fffe64 	bsr      	0x8011c28	// 8011c28 <num2char>
	OLED_ShowString(0,2,string,12);
 8011f64:	1a02      	addi      	r2, r14, 8
 8011f66:	6c13      	mov      	r0, r4
 8011f68:	330c      	movi      	r3, 12
 8011f6a:	3102      	movi      	r1, 2
 8011f6c:	e00003fa 	bsr      	0x8012760	// 8012760 <OLED_ShowString>
	
	
	time2string(string,INA226_Value.Time.Hour, INA226_Value.Time.Min, INA226_Value.Time.Sec);
 8011f70:	1036      	lrw      	r1, 0x20003210	// 8011fc8 <OLED_Show+0x104>
 8011f72:	1802      	addi      	r0, r14, 8
 8011f74:	817e      	ld.b      	r3, (r1, 0x1e)
 8011f76:	815d      	ld.b      	r2, (r1, 0x1d)
 8011f78:	813c      	ld.b      	r1, (r1, 0x1c)
 8011f7a:	e3fffee1 	bsr      	0x8011d3c	// 8011d3c <time2string>
	OLED_ShowString(0,3,string,12);
 8011f7e:	1a02      	addi      	r2, r14, 8
 8011f80:	330c      	movi      	r3, 12
 8011f82:	6c5b      	mov      	r1, r6
 8011f84:	6c13      	mov      	r0, r4
 8011f86:	e00003ed 	bsr      	0x8012760	// 8012760 <OLED_ShowString>
	
	
	num2char(string,ina226_value->mAh,4,0,"mAh");
 8011f8a:	f4052090 	flds      	fr0, (r5, 0x24)
 8011f8e:	e3fff6bf 	bsr      	0x8010d0c	// 8010d0c <__extendsfdf2>
 8011f92:	6f47      	mov      	r13, r1
 8011f94:	106e      	lrw      	r3, 0x8015300	// 8011fcc <OLED_Show+0x108>
 8011f96:	6cb7      	mov      	r2, r13
 8011f98:	b861      	st.w      	r3, (r14, 0x4)
 8011f9a:	6c43      	mov      	r1, r0
 8011f9c:	b880      	st.w      	r4, (r14, 0x0)
 8011f9e:	1802      	addi      	r0, r14, 8
 8011fa0:	3304      	movi      	r3, 4
 8011fa2:	e3fffe43 	bsr      	0x8011c28	// 8011c28 <num2char>
	//printf("%s ",string);
	OLED_ShowString(60,2,string,12);
 8011fa6:	330c      	movi      	r3, 12
 8011fa8:	1a02      	addi      	r2, r14, 8
 8011faa:	3102      	movi      	r1, 2
 8011fac:	303c      	movi      	r0, 60
 8011fae:	e00003d9 	bsr      	0x8012760	// 8012760 <OLED_ShowString>
	
}
 8011fb2:	140c      	addi      	r14, r14, 48
 8011fb4:	f40e2008 	flds      	fr8, (r14, 0x0)
 8011fb8:	1401      	addi      	r14, r14, 4
 8011fba:	1493      	pop      	r4-r6, r15
 8011fbc:	080152f4 	.long	0x080152f4
 8011fc0:	080152f8 	.long	0x080152f8
 8011fc4:	080152fc 	.long	0x080152fc
 8011fc8:	20003210 	.long	0x20003210
 8011fcc:	08015300 	.long	0x08015300

08011fd0 <main>:
{
 8011fd0:	14d8      	push      	r4-r11, r15
	SystemClock_Config(CPU_CLK_240M);
 8011fd2:	3002      	movi      	r0, 2
 8011fd4:	e00006d8 	bsr      	0x8012d84	// 8012d84 <SystemClock_Config>
	printf("enter main\r\n");
 8011fd8:	1115      	lrw      	r0, 0x8015330	// 80120ac <main+0xdc>
 8011fda:	e3fffd89 	bsr      	0x8011aec	// 8011aec <__GI_puts>
	HAL_Init();
 8011fde:	e0000849 	bsr      	0x8013070	// 8013070 <HAL_Init>
	Read_Flash(&INA226_Value);
 8011fe2:	1114      	lrw      	r0, 0x20003210	// 80120b0 <main+0xe0>
 8011fe4:	e3ffff4e 	bsr      	0x8011e80	// 8011e80 <Read_Flash>
	HAL_Delay(100);
 8011fe8:	3064      	movi      	r0, 100
 8011fea:	e000070b 	bsr      	0x8012e00	// 8012e00 <HAL_Delay>
	GPIO_Init();
 8011fee:	e000025f 	bsr      	0x80124ac	// 80124ac <GPIO_Init>
	OLED_Init();
 8011ff2:	e00003d5 	bsr      	0x801279c	// 801279c <OLED_Init>
	INA226_Init();
 8011ff6:	e00005cd 	bsr      	0x8012b90	// 8012b90 <INA226_Init>
	ADC_Init(ADC_4,1000);
 8011ffa:	ea0103e8 	movi      	r1, 1000
 8011ffe:	3003      	movi      	r0, 3
 8012000:	e000021e 	bsr      	0x801243c	// 801243c <ADC_Init>
	ADC_Init(ADC_VOL,1000);
 8012004:	ea0103e8 	movi      	r1, 1000
 8012008:	3005      	movi      	r0, 5
 801200a:	e0000219 	bsr      	0x801243c	// 801243c <ADC_Init>
	ADC_Init(ADC_TEMP,1000);
 801200e:	ea0103e8 	movi      	r1, 1000
 8012012:	3004      	movi      	r0, 4
 8012014:	e0000214 	bsr      	0x801243c	// 801243c <ADC_Init>
	TIM_Init_Us(TIM0,100000);
 8012018:	ea0186a0 	movi      	r1, 34464
 801201c:	39b0      	bseti      	r1, 16
 801201e:	3000      	movi      	r0, 0
 8012020:	e000028a 	bsr      	0x8012534	// 8012534 <TIM_Init_Us>
	HAL_TIM_Base_Start_IT(&htim[TIM0]);
 8012024:	1104      	lrw      	r0, 0x20001b84	// 80120b4 <main+0xe4>
 8012026:	e0000bb5 	bsr      	0x8013790	// 8013790 <HAL_TIM_Base_Start_IT>
 801202a:	ea03033e 	movi      	r3, 830
  \brief   No Operation
  \details No Operation does nothing. This instruction can be used for code alignment purposes.
 */
__ALWAYS_STATIC_INLINE void __NOP(void)
{
    __ASM volatile("nop");
 801202e:	6c03      	mov      	r0, r0
 8012030:	e823ffff 	bnezad      	r3, 0x801202e	// 801202e <main+0x5e>
 8012034:	10bf      	lrw      	r5, 0x20003210	// 80120b0 <main+0xe0>
	OLED_Clear();
 8012036:	e00002cd 	bsr      	0x80125d0	// 80125d0 <OLED_Clear>
 801203a:	ea8a0020 	lrw      	r10, 0x20000160	// 80120b8 <main+0xe8>
 801203e:	1180      	lrw      	r4, 0x20001b81	// 80120bc <main+0xec>
		Get_INA226_All_Value(&INA226_Value);
 8012040:	6e57      	mov      	r9, r5
			Show_Flage = 0;
 8012042:	ea080000 	movi      	r8, 0
			INA226_Value.Time.All_Sec = 0;
 8012046:	3600      	movi      	r6, 0
 8012048:	3700      	movi      	r7, 0
			INA226_Value.Power_All = 0;
 801204a:	ea0b0000 	movi      	r11, 0
 801204e:	040a      	br      	0x8012062	// 8012062 <main+0x92>
		if(1 == key_flag)
 8012050:	8460      	ld.b      	r3, (r4, 0x0)
 8012052:	3b41      	cmpnei      	r3, 1
 8012054:	0c19      	bf      	0x8012086	// 8012086 <main+0xb6>
		}else if(2 == key_flag)
 8012056:	8460      	ld.b      	r3, (r4, 0x0)
 8012058:	3b42      	cmpnei      	r3, 2
 801205a:	0c25      	bf      	0x80120a4	// 80120a4 <main+0xd4>
		HAL_Delay(54);
 801205c:	3036      	movi      	r0, 54
 801205e:	e00006d1 	bsr      	0x8012e00	// 8012e00 <HAL_Delay>
		Get_INA226_All_Value(&INA226_Value);
 8012062:	6c27      	mov      	r0, r9
 8012064:	e000055e 	bsr      	0x8012b20	// 8012b20 <Get_INA226_All_Value>
		if(1 == Show_Flage)
 8012068:	d86a0000 	ld.b      	r3, (r10, 0x0)
 801206c:	e903fff2 	bez      	r3, 0x8012050	// 8012050 <main+0x80>
			Write_Flash(&INA226_Value);
 8012070:	6c27      	mov      	r0, r9
 8012072:	e3fffee5 	bsr      	0x8011e3c	// 8011e3c <Write_Flash>
			OLED_Show(&INA226_Value);
 8012076:	6c27      	mov      	r0, r9
 8012078:	e3ffff26 	bsr      	0x8011ec4	// 8011ec4 <OLED_Show>
		if(1 == key_flag)
 801207c:	8460      	ld.b      	r3, (r4, 0x0)
 801207e:	3b41      	cmpnei      	r3, 1
			Show_Flage = 0;
 8012080:	dd0a0000 	st.b      	r8, (r10, 0x0)
		if(1 == key_flag)
 8012084:	0be9      	bt      	0x8012056	// 8012056 <main+0x86>
			INA226_Value.Time.All_Sec = 0;
 8012086:	b5c5      	st.w      	r6, (r5, 0x14)
 8012088:	b5e6      	st.w      	r7, (r5, 0x18)
			INA226_Value.Time.Hour = 0;
 801208a:	dd05001c 	st.b      	r8, (r5, 0x1c)
			INA226_Value.Time.Min = 0;
 801208e:	dd05001d 	st.b      	r8, (r5, 0x1d)
			INA226_Value.Time.Sec = 0;
 8012092:	dd05001e 	st.b      	r8, (r5, 0x1e)
			INA226_Value.Power_All = 0;
 8012096:	dd652008 	st.w      	r11, (r5, 0x20)
			INA226_Value.mAh = 0;
 801209a:	dd652009 	st.w      	r11, (r5, 0x24)
			key_flag = 0;
 801209e:	dd040000 	st.b      	r8, (r4, 0x0)
 80120a2:	07dd      	br      	0x801205c	// 801205c <main+0x8c>
			key_flag = 0;
 80120a4:	dd040000 	st.b      	r8, (r4, 0x0)
 80120a8:	07da      	br      	0x801205c	// 801205c <main+0x8c>
 80120aa:	0000      	.short	0x0000
 80120ac:	08015330 	.long	0x08015330
 80120b0:	20003210 	.long	0x20003210
 80120b4:	20001b84 	.long	0x20001b84
 80120b8:	20000160 	.long	0x20000160
 80120bc:	20001b81 	.long	0x20001b81

080120c0 <HAL_TIM_Callback>:



//
void HAL_TIM_Callback(TIM_HandleTypeDef *htim)
{
 80120c0:	1426      	subi      	r14, r14, 24
 80120c2:	b880      	st.w      	r4, (r14, 0x0)
 80120c4:	b8a1      	st.w      	r5, (r14, 0x4)
 80120c6:	b8c2      	st.w      	r6, (r14, 0x8)
 80120c8:	dd0e2003 	st.w      	r8, (r14, 0xc)
 80120cc:	dd2e2004 	st.w      	r9, (r14, 0x10)
 80120d0:	ddee2005 	st.w      	r15, (r14, 0x14)
 80120d4:	1421      	subi      	r14, r14, 4
 80120d6:	f40e2408 	fsts      	fr8, (r14, 0x0)
		else
			adc_num--;
		HAL_PWM_Duty_Set(&hpwm[PWM_CHANNEL_0], PWM_CHANNEL_0, adc_num);
		*/
	}
	else if (htim->Instance == TIM0)
 80120da:	90a0      	ld.w      	r5, (r0, 0x0)
 80120dc:	e9250038 	bnez      	r5, 0x801214c	// 801214c <HAL_TIM_Callback+0x8c>
	{	
		time_num++;
 80120e0:	11db      	lrw      	r6, 0x20001b80	// 80121cc <HAL_TIM_Callback+0x10c>
		if(INA226_Value.Current > 1)
 80120e2:	ea223f80 	movih      	r2, 16256
 80120e6:	119b      	lrw      	r4, 0x20003210	// 80121d0 <HAL_TIM_Callback+0x110>
		time_num++;
 80120e8:	8660      	ld.b      	r3, (r6, 0x0)
		if(INA226_Value.Current > 1)
 80120ea:	f4021b60 	fmtvrl      	fr0, r2
 80120ee:	f4042028 	flds      	fr8, (r4, 0x8)
		time_num++;
 80120f2:	2300      	addi      	r3, 1
		if(INA226_Value.Current > 1)
 80120f4:	f50001a0 	fcmplts      	fr0, fr8
		time_num++;
 80120f8:	74cc      	zextb      	r3, r3
 80120fa:	a660      	st.b      	r3, (r6, 0x0)
		{//
			
			if(time_num >= 10)
 80120fc:	3209      	movi      	r2, 9
		if(INA226_Value.Current > 1)
 80120fe:	0c63      	bf      	0x80121c4	// 80121c4 <HAL_TIM_Callback+0x104>
			if(time_num >= 10)
 8012100:	64c8      	cmphs      	r2, r3
 8012102:	0c33      	bf      	0x8012168	// 8012168 <HAL_TIM_Callback+0xa8>
				time_num = 0;
			}
		
			//INA226_Value.Power_All += INA226_Value.Power;
			
			INA226_Value.mAh = INA226_Value.Current/ (3600*10) + INA226_Value.mAh;
 8012104:	1154      	lrw      	r2, 0x470ca000	// 80121d4 <HAL_TIM_Callback+0x114>
 8012106:	f4021b62 	fmtvrl      	fr2, r2
 801210a:	f4042090 	flds      	fr0, (r4, 0x24)
 801210e:	f4480301 	fdivs      	fr1, fr8, fr2
 8012112:	f4010001 	fadds      	fr1, fr1, fr0
			
			INA226_Value.Wh += (INA226_Value.Current / 1000) * (INA226_Value.Bus_V / 1000) / (3600*10);
 8012116:	ea22447a 	movih      	r2, 17530
			INA226_Value.mAh = INA226_Value.Current/ (3600*10) + INA226_Value.mAh;
 801211a:	f4042491 	fsts      	fr1, (r4, 0x24)
			INA226_Value.Wh += (INA226_Value.Current / 1000) * (INA226_Value.Bus_V / 1000) / (3600*10);
 801211e:	f4042000 	flds      	fr0, (r4, 0x0)
 8012122:	f4021b61 	fmtvrl      	fr1, r2
 8012126:	f4200300 	fdivs      	fr0, fr0, fr1
 801212a:	f4280308 	fdivs      	fr8, fr8, fr1
 801212e:	f5000200 	fmuls      	fr0, fr0, fr8
 8012132:	f40420a1 	flds      	fr1, (r4, 0x28)
 8012136:	f4400300 	fdivs      	fr0, fr0, fr2
 801213a:	f4200000 	fadds      	fr0, fr0, fr1
 801213e:	f40424a0 	fsts      	fr0, (r4, 0x28)
		{
			if(time_num >= 10)
				time_num = 0;
		}
		
		if(0 == time_num )
 8012142:	e9230005 	bnez      	r3, 0x801214c	// 801214c <HAL_TIM_Callback+0x8c>
			Show_Flage = 1;
 8012146:	1165      	lrw      	r3, 0x20000160	// 80121d8 <HAL_TIM_Callback+0x118>
 8012148:	3201      	movi      	r2, 1
 801214a:	a340      	st.b      	r2, (r3, 0x0)
		
	}

	
}
 801214c:	f40e2008 	flds      	fr8, (r14, 0x0)
 8012150:	1401      	addi      	r14, r14, 4
 8012152:	d9ee2005 	ld.w      	r15, (r14, 0x14)
 8012156:	d92e2004 	ld.w      	r9, (r14, 0x10)
 801215a:	d90e2003 	ld.w      	r8, (r14, 0xc)
 801215e:	98c2      	ld.w      	r6, (r14, 0x8)
 8012160:	98a1      	ld.w      	r5, (r14, 0x4)
 8012162:	9880      	ld.w      	r4, (r14, 0x0)
 8012164:	1406      	addi      	r14, r14, 24
 8012166:	783c      	jmp      	r15
				INA226_Value.Time.All_Sec++;
 8012168:	d9042005 	ld.w      	r8, (r4, 0x14)
 801216c:	d9242006 	ld.w      	r9, (r4, 0x18)
 8012170:	e5080000 	addi      	r8, r8, 1
 8012174:	eb480000 	cmpnei      	r8, 0
 8012178:	c5290c21 	incf      	r9, r9, 1
 801217c:	dd042005 	st.w      	r8, (r4, 0x14)
 8012180:	dd242006 	st.w      	r9, (r4, 0x18)
				INA226_Value.Time.Hour = INA226_Value.Time.All_Sec/(60*60);
 8012184:	ea020e10 	movi      	r2, 3600
 8012188:	3300      	movi      	r3, 0
 801218a:	6c23      	mov      	r0, r8
 801218c:	6c67      	mov      	r1, r9
 801218e:	e3fff293 	bsr      	0x80106b4	// 80106b4 <__udivdi3>
 8012192:	a41c      	st.b      	r0, (r4, 0x1c)
				INA226_Value.Time.Min = (INA226_Value.Time.All_Sec%(60*60))/60;
 8012194:	ea020e10 	movi      	r2, 3600
 8012198:	3300      	movi      	r3, 0
 801219a:	6c23      	mov      	r0, r8
 801219c:	6c67      	mov      	r1, r9
 801219e:	e3fff425 	bsr      	0x80109e8	// 80109e8 <__umoddi3>
 80121a2:	323c      	movi      	r2, 60
 80121a4:	3300      	movi      	r3, 0
 80121a6:	6e03      	mov      	r8, r0
 80121a8:	6e47      	mov      	r9, r1
 80121aa:	e3fff285 	bsr      	0x80106b4	// 80106b4 <__udivdi3>
 80121ae:	a41d      	st.b      	r0, (r4, 0x1d)
				INA226_Value.Time.Sec = (INA226_Value.Time.All_Sec%(60*60))%60;
 80121b0:	3300      	movi      	r3, 0
 80121b2:	323c      	movi      	r2, 60
 80121b4:	6c23      	mov      	r0, r8
 80121b6:	6c67      	mov      	r1, r9
 80121b8:	e3fff418 	bsr      	0x80109e8	// 80109e8 <__umoddi3>
 80121bc:	a41e      	st.b      	r0, (r4, 0x1e)
				time_num = 0;
 80121be:	a6a0      	st.b      	r5, (r6, 0x0)
 80121c0:	6cd7      	mov      	r3, r5
 80121c2:	07a1      	br      	0x8012104	// 8012104 <HAL_TIM_Callback+0x44>
			if(time_num >= 10)
 80121c4:	64c8      	cmphs      	r2, r3
 80121c6:	0bbe      	bt      	0x8012142	// 8012142 <HAL_TIM_Callback+0x82>
				time_num = 0;
 80121c8:	a6a0      	st.b      	r5, (r6, 0x0)
 80121ca:	07be      	br      	0x8012146	// 8012146 <HAL_TIM_Callback+0x86>
 80121cc:	20001b80 	.long	0x20001b80
 80121d0:	20003210 	.long	0x20003210
 80121d4:	470ca000 	.long	0x470ca000
 80121d8:	20000160 	.long	0x20000160

080121dc <HAL_MspInit>:
#include "wm_hal.h"

void HAL_MspInit(void)
{

}
 80121dc:	783c      	jmp      	r15
	...

080121e0 <HAL_TIM_Base_MspInit>:
	//HAL_GPIO_DeInit(GPIOB, GPIO_PIN_2);
	//HAL_GPIO_DeInit(GPIOB, GPIO_PIN_3);
}

void HAL_TIM_Base_MspInit(TIM_HandleTypeDef* htim_base)
{
 80121e0:	14d0      	push      	r15
	__HAL_RCC_TIM_CLK_ENABLE();
 80121e2:	ea224000 	movih      	r2, 16384
 80121e6:	e4420dff 	addi      	r2, r2, 3584
	HAL_NVIC_SetPriority(TIM_IRQn, 0);
 80121ea:	3100      	movi      	r1, 0
	__HAL_RCC_TIM_CLK_ENABLE();
 80121ec:	9260      	ld.w      	r3, (r2, 0x0)
 80121ee:	ec630400 	ori      	r3, r3, 1024
 80121f2:	b260      	st.w      	r3, (r2, 0x0)
	HAL_NVIC_SetPriority(TIM_IRQn, 0);
 80121f4:	301e      	movi      	r0, 30
 80121f6:	e0000611 	bsr      	0x8012e18	// 8012e18 <HAL_NVIC_SetPriority>
	HAL_NVIC_EnableIRQ(TIM_IRQn);
 80121fa:	301e      	movi      	r0, 30
 80121fc:	e0000628 	bsr      	0x8012e4c	// 8012e4c <HAL_NVIC_EnableIRQ>
}
 8012200:	1490      	pop      	r15
	...

08012204 <HAL_ADC_MspInit>:
	HAL_GPIO_DeInit(GPIOB, GPIO_PIN_2 | GPIO_PIN_3 | GPIO_PIN_4 | GPIO_PIN_5);
}


void HAL_ADC_MspInit(ADC_HandleTypeDef* hadc)
{
 8012204:	14d0      	push      	r15
	if (hadc->Instance == ADC)
 8012206:	9040      	ld.w      	r2, (r0, 0x0)
 8012208:	ea234001 	movih      	r3, 16385
 801220c:	3ba9      	bseti      	r3, 9
 801220e:	64ca      	cmpne      	r2, r3
 8012210:	0c02      	bf      	0x8012214	// 8012214 <HAL_ADC_MspInit+0x10>
		
		// 
		HAL_NVIC_SetPriority(ADC_IRQn, 0);
		HAL_NVIC_EnableIRQ(ADC_IRQn);
	}
}
 8012212:	1490      	pop      	r15
		__HAL_RCC_ADC_CLK_ENABLE();
 8012214:	ea234000 	movih      	r3, 16384
 8012218:	e4630dff 	addi      	r3, r3, 3584
 801221c:	9340      	ld.w      	r2, (r3, 0x0)
 801221e:	ec421000 	ori      	r2, r2, 4096
 8012222:	b340      	st.w      	r2, (r3, 0x0)
		__HAL_RCC_GPIO_CLK_ENABLE();
 8012224:	9340      	ld.w      	r2, (r3, 0x0)
 8012226:	ec420800 	ori      	r2, r2, 2048
 801222a:	b340      	st.w      	r2, (r3, 0x0)
		if (hadc->Init.channel == ADC_CHANNEL_0)
 801222c:	9061      	ld.w      	r3, (r0, 0x4)
 801222e:	e903002d 	bez      	r3, 0x8012288	// 8012288 <HAL_ADC_MspInit+0x84>
		else if (hadc->Init.channel == ADC_CHANNEL_1)
 8012232:	eb430100 	cmpnei      	r3, 256
 8012236:	0c41      	bf      	0x80122b8	// 80122b8 <HAL_ADC_MspInit+0xb4>
		else if (hadc->Init.channel == ADC_CHANNEL_2)
 8012238:	eb430200 	cmpnei      	r3, 512
 801223c:	0c4d      	bf      	0x80122d6	// 80122d6 <HAL_ADC_MspInit+0xd2>
		else if (hadc->Init.channel == ADC_CHANNEL_3)
 801223e:	eb430300 	cmpnei      	r3, 768
 8012242:	0c39      	bf      	0x80122b4	// 80122b4 <HAL_ADC_MspInit+0xb0>
		else if (hadc->Init.channel == ADC_CHANNEL_0_1)
 8012244:	eb430800 	cmpnei      	r3, 2048
 8012248:	0c56      	bf      	0x80122f4	// 80122f4 <HAL_ADC_MspInit+0xf0>
		else if (hadc->Init.channel == ADC_CHANNEL_2_3)
 801224a:	eb430900 	cmpnei      	r3, 2304
 801224e:	082b      	bt      	0x80122a4	// 80122a4 <HAL_ADC_MspInit+0xa0>
			__HAL_AFIO_REMAP_ADC(GPIOA, GPIO_PIN_3);
 8012250:	1171      	lrw      	r3, 0x40011200	// 8012314 <HAL_ADC_MspInit+0x110>
 8012252:	9344      	ld.w      	r2, (r3, 0x10)
 8012254:	3a83      	bclri      	r2, 3
 8012256:	b344      	st.w      	r2, (r3, 0x10)
 8012258:	9342      	ld.w      	r2, (r3, 0x8)
 801225a:	3a83      	bclri      	r2, 3
 801225c:	b342      	st.w      	r2, (r3, 0x8)
 801225e:	9343      	ld.w      	r2, (r3, 0xc)
 8012260:	ec420008 	ori      	r2, r2, 8
 8012264:	b343      	st.w      	r2, (r3, 0xc)
 8012266:	9347      	ld.w      	r2, (r3, 0x1c)
 8012268:	3a83      	bclri      	r2, 3
 801226a:	b347      	st.w      	r2, (r3, 0x1c)
			__HAL_AFIO_REMAP_ADC(GPIOA, GPIO_PIN_2);
 801226c:	9344      	ld.w      	r2, (r3, 0x10)
 801226e:	3a82      	bclri      	r2, 2
 8012270:	b344      	st.w      	r2, (r3, 0x10)
 8012272:	9342      	ld.w      	r2, (r3, 0x8)
 8012274:	3a82      	bclri      	r2, 2
 8012276:	b342      	st.w      	r2, (r3, 0x8)
 8012278:	9343      	ld.w      	r2, (r3, 0xc)
 801227a:	ec420004 	ori      	r2, r2, 4
 801227e:	b343      	st.w      	r2, (r3, 0xc)
 8012280:	9347      	ld.w      	r2, (r3, 0x1c)
 8012282:	3a82      	bclri      	r2, 2
 8012284:	b347      	st.w      	r2, (r3, 0x1c)
 8012286:	040f      	br      	0x80122a4	// 80122a4 <HAL_ADC_MspInit+0xa0>
			__HAL_AFIO_REMAP_ADC(GPIOA, GPIO_PIN_1);
 8012288:	1163      	lrw      	r3, 0x40011200	// 8012314 <HAL_ADC_MspInit+0x110>
 801228a:	9344      	ld.w      	r2, (r3, 0x10)
 801228c:	3a81      	bclri      	r2, 1
 801228e:	b344      	st.w      	r2, (r3, 0x10)
 8012290:	9342      	ld.w      	r2, (r3, 0x8)
 8012292:	3a81      	bclri      	r2, 1
 8012294:	b342      	st.w      	r2, (r3, 0x8)
 8012296:	9343      	ld.w      	r2, (r3, 0xc)
 8012298:	ec420002 	ori      	r2, r2, 2
 801229c:	b343      	st.w      	r2, (r3, 0xc)
 801229e:	9347      	ld.w      	r2, (r3, 0x1c)
 80122a0:	3a81      	bclri      	r2, 1
 80122a2:	b347      	st.w      	r2, (r3, 0x1c)
		HAL_NVIC_SetPriority(ADC_IRQn, 0);
 80122a4:	3100      	movi      	r1, 0
 80122a6:	300b      	movi      	r0, 11
 80122a8:	e00005b8 	bsr      	0x8012e18	// 8012e18 <HAL_NVIC_SetPriority>
		HAL_NVIC_EnableIRQ(ADC_IRQn);
 80122ac:	300b      	movi      	r0, 11
 80122ae:	e00005cf 	bsr      	0x8012e4c	// 8012e4c <HAL_NVIC_EnableIRQ>
}
 80122b2:	1490      	pop      	r15
			__HAL_AFIO_REMAP_ADC(GPIOA, GPIO_PIN_2);
 80122b4:	1078      	lrw      	r3, 0x40011200	// 8012314 <HAL_ADC_MspInit+0x110>
 80122b6:	07db      	br      	0x801226c	// 801226c <HAL_ADC_MspInit+0x68>
			__HAL_AFIO_REMAP_ADC(GPIOA, GPIO_PIN_4);
 80122b8:	1077      	lrw      	r3, 0x40011200	// 8012314 <HAL_ADC_MspInit+0x110>
			__HAL_AFIO_REMAP_ADC(GPIOA, GPIO_PIN_4);
 80122ba:	9344      	ld.w      	r2, (r3, 0x10)
 80122bc:	3a84      	bclri      	r2, 4
 80122be:	b344      	st.w      	r2, (r3, 0x10)
 80122c0:	9342      	ld.w      	r2, (r3, 0x8)
 80122c2:	3a84      	bclri      	r2, 4
 80122c4:	b342      	st.w      	r2, (r3, 0x8)
 80122c6:	9343      	ld.w      	r2, (r3, 0xc)
 80122c8:	ec420010 	ori      	r2, r2, 16
 80122cc:	b343      	st.w      	r2, (r3, 0xc)
 80122ce:	9347      	ld.w      	r2, (r3, 0x1c)
 80122d0:	3a84      	bclri      	r2, 4
 80122d2:	b347      	st.w      	r2, (r3, 0x1c)
 80122d4:	07e8      	br      	0x80122a4	// 80122a4 <HAL_ADC_MspInit+0xa0>
			__HAL_AFIO_REMAP_ADC(GPIOA, GPIO_PIN_3);
 80122d6:	1070      	lrw      	r3, 0x40011200	// 8012314 <HAL_ADC_MspInit+0x110>
 80122d8:	9344      	ld.w      	r2, (r3, 0x10)
 80122da:	3a83      	bclri      	r2, 3
 80122dc:	b344      	st.w      	r2, (r3, 0x10)
 80122de:	9342      	ld.w      	r2, (r3, 0x8)
 80122e0:	3a83      	bclri      	r2, 3
 80122e2:	b342      	st.w      	r2, (r3, 0x8)
 80122e4:	9343      	ld.w      	r2, (r3, 0xc)
 80122e6:	ec420008 	ori      	r2, r2, 8
 80122ea:	b343      	st.w      	r2, (r3, 0xc)
 80122ec:	9347      	ld.w      	r2, (r3, 0x1c)
 80122ee:	3a83      	bclri      	r2, 3
 80122f0:	b347      	st.w      	r2, (r3, 0x1c)
 80122f2:	07d9      	br      	0x80122a4	// 80122a4 <HAL_ADC_MspInit+0xa0>
			__HAL_AFIO_REMAP_ADC(GPIOA, GPIO_PIN_1);
 80122f4:	1068      	lrw      	r3, 0x40011200	// 8012314 <HAL_ADC_MspInit+0x110>
 80122f6:	9344      	ld.w      	r2, (r3, 0x10)
 80122f8:	3a81      	bclri      	r2, 1
 80122fa:	b344      	st.w      	r2, (r3, 0x10)
 80122fc:	9342      	ld.w      	r2, (r3, 0x8)
 80122fe:	3a81      	bclri      	r2, 1
 8012300:	b342      	st.w      	r2, (r3, 0x8)
 8012302:	9343      	ld.w      	r2, (r3, 0xc)
 8012304:	ec420002 	ori      	r2, r2, 2
 8012308:	b343      	st.w      	r2, (r3, 0xc)
 801230a:	9347      	ld.w      	r2, (r3, 0x1c)
 801230c:	3a81      	bclri      	r2, 1
 801230e:	b347      	st.w      	r2, (r3, 0x1c)
 8012310:	07d5      	br      	0x80122ba	// 80122ba <HAL_ADC_MspInit+0xb6>
 8012312:	0000      	.short	0x0000
 8012314:	40011200 	.long	0x40011200

08012318 <CORET_IRQHandler>:

#include "wm_hal.h"

__attribute__((isr)) void CORET_IRQHandler(void)
{
 8012318:	1460      	nie
 801231a:	1462      	ipush
 801231c:	142e      	subi      	r14, r14, 56
 801231e:	d64e1c2d 	stm      	r18-r31, (r14)
 8012322:	1428      	subi      	r14, r14, 32
 8012324:	f4ee3400 	fstms      	fr0-fr7, (r14)
 8012328:	14d0      	push      	r15
	uint32_t temp;
	
	temp = (*(volatile unsigned int *) (0xE000E010));
 801232a:	1068      	lrw      	r3, 0xe000e000	// 8012348 <CORET_IRQHandler+0x30>
 801232c:	9364      	ld.w      	r3, (r3, 0x10)
	HAL_IncTick();
 801232e:	e000055b 	bsr      	0x8012de4	// 8012de4 <HAL_IncTick>
}
 8012332:	d9ee2000 	ld.w      	r15, (r14, 0x0)
 8012336:	1401      	addi      	r14, r14, 4
 8012338:	f4ee3000 	fldms      	fr0-fr7, (r14)
 801233c:	1408      	addi      	r14, r14, 32
 801233e:	d24e1c2d 	ldm      	r18-r31, (r14)
 8012342:	140e      	addi      	r14, r14, 56
 8012344:	1463      	ipop
 8012346:	1461      	nir
 8012348:	e000e000 	.long	0xe000e000

0801234c <GPIOA_IRQHandler>:

__attribute__((isr)) void GPIOA_IRQHandler(void)
{
 801234c:	1460      	nie
 801234e:	1462      	ipush
 8012350:	142e      	subi      	r14, r14, 56
 8012352:	d64e1c2d 	stm      	r18-r31, (r14)
 8012356:	1428      	subi      	r14, r14, 32
 8012358:	f4ee3400 	fstms      	fr0-fr7, (r14)
 	//HAL_GPIO_EXTI_IRQHandler(GPIOA, GPIO_PIN_0);
}
 801235c:	f4ee3000 	fldms      	fr0-fr7, (r14)
 8012360:	1408      	addi      	r14, r14, 32
 8012362:	d24e1c2d 	ldm      	r18-r31, (r14)
 8012366:	140e      	addi      	r14, r14, 56
 8012368:	1463      	ipop
 801236a:	1461      	nir

0801236c <GPIOB_IRQHandler>:

__attribute__((isr)) void GPIOB_IRQHandler(void)
{
 801236c:	1460      	nie
 801236e:	1462      	ipush
 8012370:	142e      	subi      	r14, r14, 56
 8012372:	d64e1c2d 	stm      	r18-r31, (r14)
 8012376:	1428      	subi      	r14, r14, 32
 8012378:	f4ee3400 	fstms      	fr0-fr7, (r14)
 801237c:	14d0      	push      	r15
	HAL_GPIO_EXTI_IRQHandler(GPIOB, GPIO_PIN_18);
 801237e:	ea210004 	movih      	r1, 4
 8012382:	100a      	lrw      	r0, 0x40011400	// 80123a8 <GPIOB_IRQHandler+0x3c>
 8012384:	e0000668 	bsr      	0x8013054	// 8013054 <HAL_GPIO_EXTI_IRQHandler>
	HAL_GPIO_EXTI_IRQHandler(GPIOB, GPIO_PIN_26);
 8012388:	ea210400 	movih      	r1, 1024
 801238c:	1007      	lrw      	r0, 0x40011400	// 80123a8 <GPIOB_IRQHandler+0x3c>
 801238e:	e0000663 	bsr      	0x8013054	// 8013054 <HAL_GPIO_EXTI_IRQHandler>
}
 8012392:	d9ee2000 	ld.w      	r15, (r14, 0x0)
 8012396:	1401      	addi      	r14, r14, 4
 8012398:	f4ee3000 	fldms      	fr0-fr7, (r14)
 801239c:	1408      	addi      	r14, r14, 32
 801239e:	d24e1c2d 	ldm      	r18-r31, (r14)
 80123a2:	140e      	addi      	r14, r14, 56
 80123a4:	1463      	ipop
 80123a6:	1461      	nir
 80123a8:	40011400 	.long	0x40011400

080123ac <TIM0_5_IRQHandler>:


extern TIM_HandleTypeDef htim[6];

__attribute__((isr)) void TIM0_5_IRQHandler(void)
{
 80123ac:	1460      	nie
 80123ae:	1462      	ipush
 80123b0:	142e      	subi      	r14, r14, 56
 80123b2:	d64e1c2d 	stm      	r18-r31, (r14)
 80123b6:	1428      	subi      	r14, r14, 32
 80123b8:	f4ee3400 	fstms      	fr0-fr7, (r14)
 80123bc:	14d1      	push      	r4, r15
	HAL_TIM_IRQHandler(&htim[0]);
 80123be:	108b      	lrw      	r4, 0x20001b84	// 80123e8 <TIM0_5_IRQHandler+0x3c>
 80123c0:	6c13      	mov      	r0, r4
 80123c2:	e0000a07 	bsr      	0x80137d0	// 80137d0 <HAL_TIM_IRQHandler>
	HAL_TIM_IRQHandler(&htim[1]);
 80123c6:	e4040017 	addi      	r0, r4, 24
 80123ca:	e0000a03 	bsr      	0x80137d0	// 80137d0 <HAL_TIM_IRQHandler>
}
 80123ce:	d9ee2001 	ld.w      	r15, (r14, 0x4)
 80123d2:	9880      	ld.w      	r4, (r14, 0x0)
 80123d4:	1402      	addi      	r14, r14, 8
 80123d6:	f4ee3000 	fldms      	fr0-fr7, (r14)
 80123da:	1408      	addi      	r14, r14, 32
 80123dc:	d24e1c2d 	ldm      	r18-r31, (r14)
 80123e0:	140e      	addi      	r14, r14, 56
 80123e2:	1463      	ipop
 80123e4:	1461      	nir
 80123e6:	0000      	.short	0x0000
 80123e8:	20001b84 	.long	0x20001b84

080123ec <ADC_IRQHandler>:

extern ADC_HandleTypeDef hadc[6];

__attribute__((isr)) void ADC_IRQHandler(void)
{
 80123ec:	1460      	nie
 80123ee:	1462      	ipush
 80123f0:	142e      	subi      	r14, r14, 56
 80123f2:	d64e1c2d 	stm      	r18-r31, (r14)
 80123f6:	1428      	subi      	r14, r14, 32
 80123f8:	f4ee3400 	fstms      	fr0-fr7, (r14)
 80123fc:	14d1      	push      	r4, r15
 	HAL_ADC_IRQHandler(&hadc[1]);
 80123fe:	108b      	lrw      	r4, 0x20003258	// 8012428 <ADC_IRQHandler+0x3c>
 8012400:	6c13      	mov      	r0, r4
 8012402:	e000044f 	bsr      	0x8012ca0	// 8012ca0 <HAL_ADC_IRQHandler>
	HAL_ADC_IRQHandler(&hadc[5]);
 8012406:	e404006f 	addi      	r0, r4, 112
 801240a:	e000044b 	bsr      	0x8012ca0	// 8012ca0 <HAL_ADC_IRQHandler>
 801240e:	d9ee2001 	ld.w      	r15, (r14, 0x4)
 8012412:	9880      	ld.w      	r4, (r14, 0x0)
 8012414:	1402      	addi      	r14, r14, 8
 8012416:	f4ee3000 	fldms      	fr0-fr7, (r14)
 801241a:	1408      	addi      	r14, r14, 32
 801241c:	d24e1c2d 	ldm      	r18-r31, (r14)
 8012420:	140e      	addi      	r14, r14, 56
 8012422:	1463      	ipop
 8012424:	1461      	nir
 8012426:	0000      	.short	0x0000
 8012428:	20003258 	.long	0x20003258

0801242c <Error_Handler_Adc>:
#include "adc.h"
 


void Error_Handler_Adc(void)
{
 801242c:	14d1      	push      	r4, r15
	while (1)
	{
		printf("Error_Handler adc\r\n");
 801242e:	1083      	lrw      	r4, 0x80153e8	// 8012438 <Error_Handler_Adc+0xc>
 8012430:	6c13      	mov      	r0, r4
 8012432:	e3fffb5d 	bsr      	0x8011aec	// 8011aec <__GI_puts>
 8012436:	07fd      	br      	0x8012430	// 8012430 <Error_Handler_Adc+0x4>
 8012438:	080153e8 	.long	0x080153e8

0801243c <ADC_Init>:
	}
}


void ADC_Init(uint32_t adc_num, uint32_t freq)
{
 801243c:	14d0      	push      	r15
	#define ADC_CHANNEL_OFFSET	ADC_ANA_CR_CH_OFFSET
*/

	uint32_t ADC_CHANNEL;
	 /* 307hz ~ 2khz */
	switch(adc_num)
 801243e:	3805      	cmphsi      	r0, 6
 8012440:	082a      	bt      	0x8012494	// 8012494 <ADC_Init+0x58>
 8012442:	1063      	lrw      	r3, 0x8015384	// 801244c <ADC_Init+0x10>
 8012444:	d0030883 	ldr.w      	r3, (r3, r0 << 2)
 8012448:	780c      	jmp      	r3
 801244a:	0000      	.short	0x0000
 801244c:	08015384 	.long	0x08015384
	{
		case 0: ADC_CHANNEL = ADC_CHANNEL_0; break; 	//PA1
		case 1: ADC_CHANNEL = ADC_CHANNEL_1; break;		//PA4
		case 2: ADC_CHANNEL = ADC_CHANNEL_2; break;		//PA3
 8012450:	ea020200 	movi      	r2, 512
		case 4: ADC_CHANNEL = ADC_CHANNEL_TEMP; break;
		case 5: ADC_CHANNEL = ADC_CHANNEL_VOL; break;
		default : printf("adc init ADC_CHANNEL err, The number of channels is not between 0 and 3 \r\n");return; break;
	}
	
	hadc[adc_num].Instance = ADC;
 8012454:	1073      	lrw      	r3, 0x2000323c	// 80124a0 <ADC_Init+0x64>
 8012456:	ea0c001c 	movi      	r12, 28
 801245a:	7c30      	mult      	r0, r12
 801245c:	ea2c4001 	movih      	r12, 16385
 8012460:	c52c284c 	bseti      	r12, r12, 9
 8012464:	d403082c 	str.w      	r12, (r3, r0 << 0)
	hadc[adc_num].Init.channel = ADC_CHANNEL;
 8012468:	600c      	addu      	r0, r3
 801246a:	b041      	st.w      	r2, (r0, 0x4)
	hadc[adc_num].Init.freq = freq;
 801246c:	b022      	st.w      	r1, (r0, 0x8)
	
	if (HAL_ADC_Init(&hadc[adc_num]) != HAL_OK)
 801246e:	e00003a9 	bsr      	0x8012bc0	// 8012bc0 <HAL_ADC_Init>
 8012472:	e9200015 	bnez      	r0, 0x801249c	// 801249c <ADC_Init+0x60>
	{
		Error_Handler_Adc();
	}
}
 8012476:	1490      	pop      	r15
		case 3: ADC_CHANNEL = ADC_CHANNEL_3; break;		//PA2
 8012478:	ea020300 	movi      	r2, 768
 801247c:	07ec      	br      	0x8012454	// 8012454 <ADC_Init+0x18>
		case 4: ADC_CHANNEL = ADC_CHANNEL_TEMP; break;
 801247e:	ea020c00 	movi      	r2, 3072
 8012482:	07e9      	br      	0x8012454	// 8012454 <ADC_Init+0x18>
		case 5: ADC_CHANNEL = ADC_CHANNEL_VOL; break;
 8012484:	ea020d00 	movi      	r2, 3328
 8012488:	07e6      	br      	0x8012454	// 8012454 <ADC_Init+0x18>
		case 0: ADC_CHANNEL = ADC_CHANNEL_0; break; 	//PA1
 801248a:	6c83      	mov      	r2, r0
 801248c:	07e4      	br      	0x8012454	// 8012454 <ADC_Init+0x18>
		case 1: ADC_CHANNEL = ADC_CHANNEL_1; break;		//PA4
 801248e:	ea020100 	movi      	r2, 256
 8012492:	07e1      	br      	0x8012454	// 8012454 <ADC_Init+0x18>
		default : printf("adc init ADC_CHANNEL err, The number of channels is not between 0 and 3 \r\n");return; break;
 8012494:	1004      	lrw      	r0, 0x801539c	// 80124a4 <ADC_Init+0x68>
 8012496:	e3fffb2b 	bsr      	0x8011aec	// 8011aec <__GI_puts>
}
 801249a:	1490      	pop      	r15
		Error_Handler_Adc();
 801249c:	e3ffffc8 	bsr      	0x801242c	// 801242c <Error_Handler_Adc>
 80124a0:	2000323c 	.long	0x2000323c
 80124a4:	0801539c 	.long	0x0801539c

080124a8 <HAL_ADC_ConvCpltCallback>:

void HAL_ADC_ConvCpltCallback(ADC_HandleTypeDef* hadc)
{
	
}
 80124a8:	783c      	jmp      	r15
	...

080124ac <GPIO_Init>:
//KEY
volatile uint8_t key_flag = 0;


void GPIO_Init(void)
{
 80124ac:	14d1      	push      	r4, r15
 80124ae:	1423      	subi      	r14, r14, 12
	GPIO_InitTypeDef GPIO_InitStruct = {0};
	
	__HAL_RCC_GPIO_CLK_ENABLE();
 80124b0:	ea224000 	movih      	r2, 16384
 80124b4:	e4420dff 	addi      	r2, r2, 3584
	GPIO_InitTypeDef GPIO_InitStruct = {0};
 80124b8:	3400      	movi      	r4, 0
 80124ba:	b880      	st.w      	r4, (r14, 0x0)
 80124bc:	b881      	st.w      	r4, (r14, 0x4)
 80124be:	b882      	st.w      	r4, (r14, 0x8)
	__HAL_RCC_GPIO_CLK_ENABLE();
 80124c0:	9260      	ld.w      	r3, (r2, 0x0)
 80124c2:	ec630800 	ori      	r3, r3, 2048
 80124c6:	b260      	st.w      	r3, (r2, 0x0)
	GPIO_InitStruct.Mode = GPIO_MODE_INPUT;
	GPIO_InitStruct.Pull = GPIO_PULLUP;
	HAL_GPIO_Init(GPIOB, &GPIO_InitStruct);
	*/
	
	GPIO_InitStruct.Pin = GPIO_PIN_18 | GPIO_PIN_26;
 80124c8:	ea230404 	movih      	r3, 1028
 80124cc:	b860      	st.w      	r3, (r14, 0x0)
	GPIO_InitStruct.Mode = GPIO_MODE_IT_FALLING;
 80124ce:	3388      	movi      	r3, 136
 80124d0:	b861      	st.w      	r3, (r14, 0x4)
	GPIO_InitStruct.Pull = GPIO_PULLUP;
	HAL_GPIO_Init(GPIOB, &GPIO_InitStruct);
 80124d2:	6c7b      	mov      	r1, r14
	GPIO_InitStruct.Pull = GPIO_PULLUP;
 80124d4:	3313      	movi      	r3, 19
	HAL_GPIO_Init(GPIOB, &GPIO_InitStruct);
 80124d6:	1007      	lrw      	r0, 0x40011400	// 80124f0 <GPIO_Init+0x44>
	GPIO_InitStruct.Pull = GPIO_PULLUP;
 80124d8:	b862      	st.w      	r3, (r14, 0x8)
	HAL_GPIO_Init(GPIOB, &GPIO_InitStruct);
 80124da:	e00004c9 	bsr      	0x8012e6c	// 8012e6c <HAL_GPIO_Init>
	
	
	HAL_NVIC_SetPriority(GPIOB_IRQn,0);
 80124de:	6c53      	mov      	r1, r4
 80124e0:	300f      	movi      	r0, 15
 80124e2:	e000049b 	bsr      	0x8012e18	// 8012e18 <HAL_NVIC_SetPriority>
	HAL_NVIC_EnableIRQ(GPIOB_IRQn);
 80124e6:	300f      	movi      	r0, 15
 80124e8:	e00004b2 	bsr      	0x8012e4c	// 8012e4c <HAL_NVIC_EnableIRQ>

}
 80124ec:	1403      	addi      	r14, r14, 12
 80124ee:	1491      	pop      	r4, r15
 80124f0:	40011400 	.long	0x40011400

080124f4 <HAL_GPIO_EXTI_Callback>:

void HAL_GPIO_EXTI_Callback(GPIO_TypeDef *GPIOx, uint32_t GPIO_Pin)
{
	if ((GPIOx == GPIOB) && (GPIO_Pin == GPIO_PIN_18))
 80124f4:	106a      	lrw      	r3, 0x40011400	// 801251c <HAL_GPIO_EXTI_Callback+0x28>
 80124f6:	64c2      	cmpne      	r0, r3
 80124f8:	0c02      	bf      	0x80124fc	// 80124fc <HAL_GPIO_EXTI_Callback+0x8>
	}
	else if ((GPIOx == GPIOB) && (GPIO_Pin == GPIO_PIN_26))
	{
		key_flag = 2;
	}
}
 80124fa:	783c      	jmp      	r15
	if ((GPIOx == GPIOB) && (GPIO_Pin == GPIO_PIN_18))
 80124fc:	ea230004 	movih      	r3, 4
 8012500:	64c6      	cmpne      	r1, r3
 8012502:	0c09      	bf      	0x8012514	// 8012514 <HAL_GPIO_EXTI_Callback+0x20>
	else if ((GPIOx == GPIOB) && (GPIO_Pin == GPIO_PIN_26))
 8012504:	ea230400 	movih      	r3, 1024
 8012508:	64c6      	cmpne      	r1, r3
 801250a:	0bf8      	bt      	0x80124fa	// 80124fa <HAL_GPIO_EXTI_Callback+0x6>
		key_flag = 2;
 801250c:	1065      	lrw      	r3, 0x20001b81	// 8012520 <HAL_GPIO_EXTI_Callback+0x2c>
 801250e:	3202      	movi      	r2, 2
 8012510:	a340      	st.b      	r2, (r3, 0x0)
}
 8012512:	07f4      	br      	0x80124fa	// 80124fa <HAL_GPIO_EXTI_Callback+0x6>
		key_flag = 1;
 8012514:	1063      	lrw      	r3, 0x20001b81	// 8012520 <HAL_GPIO_EXTI_Callback+0x2c>
 8012516:	3201      	movi      	r2, 1
 8012518:	a340      	st.b      	r2, (r3, 0x0)
 801251a:	07f0      	br      	0x80124fa	// 80124fa <HAL_GPIO_EXTI_Callback+0x6>
 801251c:	40011400 	.long	0x40011400
 8012520:	20001b81 	.long	0x20001b81

08012524 <Error_Handler_Time>:

TIM_HandleTypeDef htim[6] = {0};


void Error_Handler_Time(void)
{
 8012524:	14d1      	push      	r4, r15
	while (1)
	{
		printf("Error_Handler Time\r\n");
 8012526:	1083      	lrw      	r4, 0x80153fc	// 8012530 <Error_Handler_Time+0xc>
 8012528:	6c13      	mov      	r0, r4
 801252a:	e3fffae1 	bsr      	0x8011aec	// 8011aec <__GI_puts>
 801252e:	07fd      	br      	0x8012528	// 8012528 <Error_Handler_Time+0x4>
 8012530:	080153fc 	.long	0x080153fc

08012534 <TIM_Init_Us>:
	}
}


void TIM_Init_Us(uint32_t TIM_NUM,uint32_t time)
{
 8012534:	14d0      	push      	r15
	htim[TIM_NUM].Instance = TIM_NUM;
 8012536:	3218      	movi      	r2, 24
 8012538:	7c80      	mult      	r2, r0
 801253a:	1068      	lrw      	r3, 0x20001b84	// 8012558 <TIM_Init_Us+0x24>
 801253c:	d4620820 	str.w      	r0, (r2, r3 << 0)
	htim[TIM_NUM].Init.Unit = TIM_UNIT_US;
 8012540:	5b08      	addu      	r0, r3, r2
 8012542:	3300      	movi      	r3, 0
 8012544:	b061      	st.w      	r3, (r0, 0x4)
	htim[TIM_NUM].Init.Period = time;  //
 8012546:	b023      	st.w      	r1, (r0, 0xc)
	htim[TIM_NUM].Init.AutoReload = TIM_AUTORELOAD_PRELOAD_ENABLE;
 8012548:	b062      	st.w      	r3, (r0, 0x8)
	if (HAL_TIM_Base_Init(&htim[TIM_NUM]) != HAL_OK)
 801254a:	e00008df 	bsr      	0x8013708	// 8013708 <HAL_TIM_Base_Init>
 801254e:	e9200003 	bnez      	r0, 0x8012554	// 8012554 <TIM_Init_Us+0x20>
	{
		Error_Handler_Time();
	}
}
 8012552:	1490      	pop      	r15
		Error_Handler_Time();
 8012554:	e3ffffe8 	bsr      	0x8012524	// 8012524 <Error_Handler_Time>
 8012558:	20001b84 	.long	0x20001b84

0801255c <I2C_Init>:
#include "iic.h"

I2C_HandleTypeDef hi2c[2];

void I2C_Init(uint32_t num)
{
 801255c:	14d1      	push      	r4, r15
 801255e:	6d03      	mov      	r4, r0
	if(num == OLED_NUM)
 8012560:	e900000a 	bez      	r0, 0x8012574	// 8012574 <I2C_Init+0x18>
		printf("OLED GPIO INIT\r\n");
		hi2c[num].SCL_Port = GPIOA;
		hi2c[num].SCL_Pin = GPIO_PIN_1;
		hi2c[num].SDA_Port = GPIOA;
		hi2c[num].SDA_Pin = GPIO_PIN_4;
	}else if(num == INA226_NUM)
 8012564:	3841      	cmpnei      	r0, 1
 8012566:	0c18      	bf      	0x8012596	// 8012596 <I2C_Init+0x3a>
		hi2c[num].SCL_Pin = GPIO_PIN_14;
		hi2c[num].SDA_Port = GPIOB;
		hi2c[num].SDA_Pin = GPIO_PIN_15;
	}

	HAL_I2C_Init(&hi2c[num]);
 8012568:	1075      	lrw      	r3, 0x200032e4	// 80125bc <I2C_Init+0x60>
 801256a:	4404      	lsli      	r0, r4, 4
 801256c:	600c      	addu      	r0, r3
 801256e:	e000061f 	bsr      	0x80131ac	// 80131ac <HAL_I2C_Init>
 8012572:	1491      	pop      	r4, r15
		printf("OLED GPIO INIT\r\n");
 8012574:	1013      	lrw      	r0, 0x8015410	// 80125c0 <I2C_Init+0x64>
 8012576:	e3fffabb 	bsr      	0x8011aec	// 8011aec <__GI_puts>
		hi2c[num].SCL_Port = GPIOA;
 801257a:	1071      	lrw      	r3, 0x200032e4	// 80125bc <I2C_Init+0x60>
 801257c:	1052      	lrw      	r2, 0x40011200	// 80125c4 <I2C_Init+0x68>
 801257e:	b340      	st.w      	r2, (r3, 0x0)
		hi2c[num].SCL_Pin = GPIO_PIN_1;
 8012580:	3102      	movi      	r1, 2
		hi2c[num].SDA_Port = GPIOA;
 8012582:	b342      	st.w      	r2, (r3, 0x8)
		hi2c[num].SDA_Pin = GPIO_PIN_4;
 8012584:	3210      	movi      	r2, 16
		hi2c[num].SCL_Pin = GPIO_PIN_1;
 8012586:	b321      	st.w      	r1, (r3, 0x4)
		hi2c[num].SDA_Pin = GPIO_PIN_4;
 8012588:	b343      	st.w      	r2, (r3, 0xc)
	HAL_I2C_Init(&hi2c[num]);
 801258a:	4404      	lsli      	r0, r4, 4
 801258c:	106c      	lrw      	r3, 0x200032e4	// 80125bc <I2C_Init+0x60>
 801258e:	600c      	addu      	r0, r3
 8012590:	e000060e 	bsr      	0x80131ac	// 80131ac <HAL_I2C_Init>
 8012594:	1491      	pop      	r4, r15
		printf("INA226 GPIO INIT\r\n");
 8012596:	100d      	lrw      	r0, 0x8015420	// 80125c8 <I2C_Init+0x6c>
 8012598:	e3fffaaa 	bsr      	0x8011aec	// 8011aec <__GI_puts>
		hi2c[num].SCL_Port = GPIOB;
 801259c:	1068      	lrw      	r3, 0x200032e4	// 80125bc <I2C_Init+0x60>
 801259e:	104c      	lrw      	r2, 0x40011400	// 80125cc <I2C_Init+0x70>
 80125a0:	b344      	st.w      	r2, (r3, 0x10)
		hi2c[num].SCL_Pin = GPIO_PIN_14;
 80125a2:	ea014000 	movi      	r1, 16384
		hi2c[num].SDA_Port = GPIOB;
 80125a6:	b346      	st.w      	r2, (r3, 0x18)
		hi2c[num].SDA_Pin = GPIO_PIN_15;
 80125a8:	ea028000 	movi      	r2, 32768
		hi2c[num].SCL_Pin = GPIO_PIN_14;
 80125ac:	b325      	st.w      	r1, (r3, 0x14)
		hi2c[num].SDA_Pin = GPIO_PIN_15;
 80125ae:	b347      	st.w      	r2, (r3, 0x1c)
	HAL_I2C_Init(&hi2c[num]);
 80125b0:	4404      	lsli      	r0, r4, 4
 80125b2:	1063      	lrw      	r3, 0x200032e4	// 80125bc <I2C_Init+0x60>
 80125b4:	600c      	addu      	r0, r3
 80125b6:	e00005fb 	bsr      	0x80131ac	// 80131ac <HAL_I2C_Init>
 80125ba:	1491      	pop      	r4, r15
 80125bc:	200032e4 	.long	0x200032e4
 80125c0:	08015410 	.long	0x08015410
 80125c4:	40011200 	.long	0x40011200
 80125c8:	08015420 	.long	0x08015420
 80125cc:	40011400 	.long	0x40011400

080125d0 <OLED_Clear>:
	} //
}

//,,!!!!	  
void OLED_Clear(void)  
{  
 80125d0:	14d5      	push      	r4-r8, r15
 80125d2:	1422      	subi      	r14, r14, 8
 80125d4:	ea0800b0 	movi      	r8, 176
	uint8_t i,n;		    
	uint8_t buf[1];
	for(i=0;i<8;i++)  
	{  
		buf[0] = 0xb0+i;
		HAL_I2C_Write(&hi2c[OLED_NUM], OLED_ADDR, OLED_CMD, buf, 1); //0~7
 80125d8:	3601      	movi      	r6, 1
 80125da:	10ba      	lrw      	r5, 0x200032e4	// 8012640 <OLED_Clear+0x70>
		buf[0] = 0x00;
 80125dc:	3700      	movi      	r7, 0
		HAL_I2C_Write(&hi2c[OLED_NUM], OLED_ADDR, OLED_CMD, buf, 1); //0~7
 80125de:	1b01      	addi      	r3, r14, 4
 80125e0:	3200      	movi      	r2, 0
 80125e2:	3178      	movi      	r1, 120
 80125e4:	b8c0      	st.w      	r6, (r14, 0x0)
 80125e6:	6c17      	mov      	r0, r5
		buf[0] = 0xb0+i;
 80125e8:	dd0e0004 	st.b      	r8, (r14, 0x4)
		HAL_I2C_Write(&hi2c[OLED_NUM], OLED_ADDR, OLED_CMD, buf, 1); //0~7
 80125ec:	e0000602 	bsr      	0x80131f0	// 80131f0 <HAL_I2C_Write>
		HAL_I2C_Write(&hi2c[OLED_NUM], OLED_ADDR, OLED_CMD, buf, 1);	//
 80125f0:	1b01      	addi      	r3, r14, 4
 80125f2:	3200      	movi      	r2, 0
 80125f4:	3178      	movi      	r1, 120
 80125f6:	b8c0      	st.w      	r6, (r14, 0x0)
 80125f8:	6c17      	mov      	r0, r5
		buf[0] = 0x00;
 80125fa:	dcee0004 	st.b      	r7, (r14, 0x4)
		HAL_I2C_Write(&hi2c[OLED_NUM], OLED_ADDR, OLED_CMD, buf, 1);	//
 80125fe:	e00005f9 	bsr      	0x80131f0	// 80131f0 <HAL_I2C_Write>
		buf[0] = 0x10;
 8012602:	3310      	movi      	r3, 16
 8012604:	dc6e0004 	st.b      	r3, (r14, 0x4)
		HAL_I2C_Write(&hi2c[OLED_NUM], OLED_ADDR, OLED_CMD, buf, 1);	//   
 8012608:	b8c0      	st.w      	r6, (r14, 0x0)
 801260a:	1b01      	addi      	r3, r14, 4
 801260c:	3200      	movi      	r2, 0
 801260e:	3178      	movi      	r1, 120
 8012610:	6c17      	mov      	r0, r5
 8012612:	e00005ef 	bsr      	0x80131f0	// 80131f0 <HAL_I2C_Write>
 8012616:	3480      	movi      	r4, 128
		
		for(n=0;n<128;n++)
		{
			buf[0] = 0x00;
			HAL_I2C_Write(&hi2c[OLED_NUM], OLED_ADDR, OLED_DATA, buf, 1);	// 
 8012618:	b8c0      	st.w      	r6, (r14, 0x0)
 801261a:	1b01      	addi      	r3, r14, 4
 801261c:	3240      	movi      	r2, 64
 801261e:	3178      	movi      	r1, 120
 8012620:	6c17      	mov      	r0, r5
 8012622:	2c00      	subi      	r4, 1
			buf[0] = 0x00;
 8012624:	dcee0004 	st.b      	r7, (r14, 0x4)
			HAL_I2C_Write(&hi2c[OLED_NUM], OLED_ADDR, OLED_DATA, buf, 1);	// 
 8012628:	e00005e4 	bsr      	0x80131f0	// 80131f0 <HAL_I2C_Write>
		for(n=0;n<128;n++)
 801262c:	e924fff6 	bnez      	r4, 0x8012618	// 8012618 <OLED_Clear+0x48>
 8012630:	e5080000 	addi      	r8, r8, 1
 8012634:	7620      	zextb      	r8, r8
	for(i=0;i<8;i++)  
 8012636:	eb4800b8 	cmpnei      	r8, 184
 801263a:	0bd2      	bt      	0x80125de	// 80125de <OLED_Clear+0xe>
		}
	}
}
 801263c:	1402      	addi      	r14, r14, 8
 801263e:	1495      	pop      	r4-r8, r15
 8012640:	200032e4 	.long	0x200032e4

08012644 <OLED_Set_Pos>:

void OLED_Set_Pos(unsigned char x, unsigned char y) 
{
 8012644:	14d3      	push      	r4-r6, r15
 8012646:	1422      	subi      	r14, r14, 8
	uint8_t buf[1];
	
	buf[0] = 0xb0+y;
 8012648:	294f      	subi      	r1, 80
	HAL_I2C_Write(&hi2c[OLED_NUM], OLED_ADDR, OLED_CMD, buf, 1); //0~7
 801264a:	10b3      	lrw      	r5, 0x200032e4	// 8012694 <OLED_Set_Pos+0x50>
 801264c:	3601      	movi      	r6, 1
{
 801264e:	6d03      	mov      	r4, r0
	buf[0] = 0xb0+y;
 8012650:	dc2e0004 	st.b      	r1, (r14, 0x4)
	HAL_I2C_Write(&hi2c[OLED_NUM], OLED_ADDR, OLED_CMD, buf, 1); //0~7
 8012654:	1b01      	addi      	r3, r14, 4
 8012656:	b8c0      	st.w      	r6, (r14, 0x0)
 8012658:	3200      	movi      	r2, 0
 801265a:	3178      	movi      	r1, 120
 801265c:	6c17      	mov      	r0, r5
 801265e:	e00005c9 	bsr      	0x80131f0	// 80131f0 <HAL_I2C_Write>
	buf[0] = ((x&0xf0)>>4)|0x10;
 8012662:	4c64      	lsri      	r3, r4, 4
 8012664:	ec630010 	ori      	r3, r3, 16
 8012668:	dc6e0004 	st.b      	r3, (r14, 0x4)
	HAL_I2C_Write(&hi2c[OLED_NUM], OLED_ADDR, OLED_CMD, buf, 1);	//
 801266c:	b8c0      	st.w      	r6, (r14, 0x0)
 801266e:	1b01      	addi      	r3, r14, 4
 8012670:	3200      	movi      	r2, 0
 8012672:	3178      	movi      	r1, 120
 8012674:	6c17      	mov      	r0, r5
 8012676:	e00005bd 	bsr      	0x80131f0	// 80131f0 <HAL_I2C_Write>
	buf[0] = (x&0x0f);
 801267a:	e484200f 	andi      	r4, r4, 15
	HAL_I2C_Write(&hi2c[OLED_NUM], OLED_ADDR, OLED_CMD, buf, 1);	//   
 801267e:	b8c0      	st.w      	r6, (r14, 0x0)
 8012680:	1b01      	addi      	r3, r14, 4
 8012682:	3200      	movi      	r2, 0
 8012684:	3178      	movi      	r1, 120
 8012686:	6c17      	mov      	r0, r5
	buf[0] = (x&0x0f);
 8012688:	dc8e0004 	st.b      	r4, (r14, 0x4)
	HAL_I2C_Write(&hi2c[OLED_NUM], OLED_ADDR, OLED_CMD, buf, 1);	//   
 801268c:	e00005b2 	bsr      	0x80131f0	// 80131f0 <HAL_I2C_Write>
} 
 8012690:	1402      	addi      	r14, r14, 8
 8012692:	1493      	pop      	r4-r6, r15
 8012694:	200032e4 	.long	0x200032e4

08012698 <OLED_ShowChar>:
//x:0~127
//y:0~31
//mode:0,;1,				 
//size: 16/12 
void OLED_ShowChar(uint8_t x,uint8_t y,uint8_t chr,uint8_t Char_Size)
{      	
 8012698:	ebe00038 	push      	r4-r11, r15, r16
 801269c:	1421      	subi      	r14, r14, 4
	unsigned char c=0,i=0;	
		c=chr-' ';//			
 801269e:	2a1f      	subi      	r2, 32
 80126a0:	7588      	zextb      	r6, r2
		if(x>Max_Column-1){x=0;y=y+2;}
 80126a2:	7482      	sextb      	r2, r0
{      	
 80126a4:	6e43      	mov      	r9, r0
 80126a6:	6e07      	mov      	r8, r1
		if(x>Max_Column-1){x=0;y=y+2;}
 80126a8:	e982004f 	blz      	r2, 0x8012746	// 8012746 <OLED_ShowChar+0xae>
		if(Char_Size == 16)
 80126ac:	3b50      	cmpnei      	r3, 16
			{
			OLED_Set_Pos(x,y);	
 80126ae:	6c63      	mov      	r1, r8
 80126b0:	6c27      	mov      	r0, r9
		if(Char_Size == 16)
 80126b2:	0c1a      	bf      	0x80126e6	// 80126e6 <OLED_ShowChar+0x4e>
			OLED_Set_Pos(x,y+1);
			for(i=0;i<8;i++)
			HAL_I2C_Write(&hi2c[OLED_NUM], OLED_ADDR, OLED_DATA, &F8X16[c*16+i+8], 1);	
			}
			else {	
				OLED_Set_Pos(x,y);
 80126b4:	e3ffffc8 	bsr      	0x8012644	// 8012644 <OLED_Set_Pos>
 80126b8:	749b      	sexth      	r2, r6
 80126ba:	5aa8      	addu      	r5, r2, r2
 80126bc:	6094      	addu      	r2, r5
 80126be:	6088      	addu      	r2, r2
 80126c0:	11a5      	lrw      	r5, 0x20000164	// 8012754 <OLED_ShowChar+0xbc>
 80126c2:	5d88      	addu      	r4, r5, r2
 80126c4:	2205      	addi      	r2, 6
 80126c6:	6148      	addu      	r5, r2
				for(i=0;i<6;i++)
				HAL_I2C_Write(&hi2c[OLED_NUM], OLED_ADDR, OLED_DATA, &F6x8[c][i], 1);	//
 80126c8:	3701      	movi      	r7, 1
 80126ca:	11c4      	lrw      	r6, 0x200032e4	// 8012758 <OLED_ShowChar+0xc0>
 80126cc:	6cd3      	mov      	r3, r4
 80126ce:	b8e0      	st.w      	r7, (r14, 0x0)
 80126d0:	3240      	movi      	r2, 64
 80126d2:	3178      	movi      	r1, 120
 80126d4:	6c1b      	mov      	r0, r6
 80126d6:	2400      	addi      	r4, 1
 80126d8:	e000058c 	bsr      	0x80131f0	// 80131f0 <HAL_I2C_Write>
				for(i=0;i<6;i++)
 80126dc:	6552      	cmpne      	r4, r5
 80126de:	0bf7      	bt      	0x80126cc	// 80126cc <OLED_ShowChar+0x34>
				
			}
}
 80126e0:	1401      	addi      	r14, r14, 4
 80126e2:	ebc00038 	pop      	r4-r11, r15, r16
 80126e6:	46c4      	lsli      	r6, r6, 4
 80126e8:	10fd      	lrw      	r7, 0x2000038c	// 801275c <OLED_ShowChar+0xc4>
 80126ea:	5e9e      	addi      	r4, r6, 8
			OLED_Set_Pos(x,y);	
 80126ec:	e3ffffac 	bsr      	0x8012644	// 8012644 <OLED_Set_Pos>
 80126f0:	5fb8      	addu      	r5, r7, r6
 80126f2:	c4870030 	addu      	r16, r7, r4
			HAL_I2C_Write(&hi2c[OLED_NUM], OLED_ADDR, OLED_DATA, &F8X16[c*16+i], 1);	
 80126f6:	ea0b0001 	movi      	r11, 1
 80126fa:	ea8a0018 	lrw      	r10, 0x200032e4	// 8012758 <OLED_ShowChar+0xc0>
 80126fe:	6cd7      	mov      	r3, r5
 8012700:	dd6e2000 	st.w      	r11, (r14, 0x0)
 8012704:	3240      	movi      	r2, 64
 8012706:	3178      	movi      	r1, 120
 8012708:	6c2b      	mov      	r0, r10
 801270a:	2500      	addi      	r5, 1
 801270c:	e0000572 	bsr      	0x80131f0	// 80131f0 <HAL_I2C_Write>
			for(i=0;i<8;i++)
 8012710:	c4b00480 	cmpne      	r16, r5
 8012714:	0bf5      	bt      	0x80126fe	// 80126fe <OLED_ShowChar+0x66>
			OLED_Set_Pos(x,y+1);
 8012716:	e4280000 	addi      	r1, r8, 1
 801271a:	7444      	zextb      	r1, r1
 801271c:	6c27      	mov      	r0, r9
 801271e:	260f      	addi      	r6, 16
 8012720:	611c      	addu      	r4, r7
 8012722:	619c      	addu      	r6, r7
 8012724:	e3ffff90 	bsr      	0x8012644	// 8012644 <OLED_Set_Pos>
			HAL_I2C_Write(&hi2c[OLED_NUM], OLED_ADDR, OLED_DATA, &F8X16[c*16+i+8], 1);	
 8012728:	3701      	movi      	r7, 1
 801272a:	10ac      	lrw      	r5, 0x200032e4	// 8012758 <OLED_ShowChar+0xc0>
 801272c:	6cd3      	mov      	r3, r4
 801272e:	b8e0      	st.w      	r7, (r14, 0x0)
 8012730:	3240      	movi      	r2, 64
 8012732:	3178      	movi      	r1, 120
 8012734:	6c17      	mov      	r0, r5
 8012736:	2400      	addi      	r4, 1
 8012738:	e000055c 	bsr      	0x80131f0	// 80131f0 <HAL_I2C_Write>
			for(i=0;i<8;i++)
 801273c:	651a      	cmpne      	r6, r4
 801273e:	0bf7      	bt      	0x801272c	// 801272c <OLED_ShowChar+0x94>
}
 8012740:	1401      	addi      	r14, r14, 4
 8012742:	ebc00038 	pop      	r4-r11, r15, r16
		if(x>Max_Column-1){x=0;y=y+2;}
 8012746:	e5010001 	addi      	r8, r1, 2
 801274a:	7620      	zextb      	r8, r8
 801274c:	ea090000 	movi      	r9, 0
 8012750:	07ae      	br      	0x80126ac	// 80126ac <OLED_ShowChar+0x14>
 8012752:	0000      	.short	0x0000
 8012754:	20000164 	.long	0x20000164
 8012758:	200032e4 	.long	0x200032e4
 801275c:	2000038c 	.long	0x2000038c

08012760 <OLED_ShowString>:

//
void OLED_ShowString(uint8_t x,uint8_t y,uint8_t *chr,uint8_t Char_Size)
{
 8012760:	14d6      	push      	r4-r9, r15
 8012762:	6dcb      	mov      	r7, r2
	unsigned char j=0;
	while (chr[j]!='\0')
 8012764:	8240      	ld.b      	r2, (r2, 0x0)
{
 8012766:	6d03      	mov      	r4, r0
 8012768:	6d87      	mov      	r6, r1
 801276a:	6e0f      	mov      	r8, r3
	while (chr[j]!='\0')
 801276c:	e9020017 	bez      	r2, 0x801279a	// 801279a <OLED_ShowString+0x3a>
 8012770:	3500      	movi      	r5, 0
	{		OLED_ShowChar(x,y,chr[j],Char_Size);
			x+=8;
		if(x>120){x=0;y+=2;}
 8012772:	ea090078 	movi      	r9, 120
	{		OLED_ShowChar(x,y,chr[j],Char_Size);
 8012776:	6c13      	mov      	r0, r4
			x+=8;
 8012778:	2407      	addi      	r4, 8
	{		OLED_ShowChar(x,y,chr[j],Char_Size);
 801277a:	6ce3      	mov      	r3, r8
 801277c:	6c5b      	mov      	r1, r6
			x+=8;
 801277e:	7510      	zextb      	r4, r4
	{		OLED_ShowChar(x,y,chr[j],Char_Size);
 8012780:	e3ffff8c 	bsr      	0x8012698	// 8012698 <OLED_ShowChar>
		if(x>120){x=0;y+=2;}
 8012784:	6524      	cmphs      	r9, r4
 8012786:	0804      	bt      	0x801278e	// 801278e <OLED_ShowString+0x2e>
 8012788:	2601      	addi      	r6, 2
 801278a:	7598      	zextb      	r6, r6
 801278c:	3400      	movi      	r4, 0
			j++;
 801278e:	2500      	addi      	r5, 1
 8012790:	7554      	zextb      	r5, r5
	while (chr[j]!='\0')
 8012792:	d0a70022 	ldr.b      	r2, (r7, r5 << 0)
 8012796:	e922fff0 	bnez      	r2, 0x8012776	// 8012776 <OLED_ShowString+0x16>
	}
}
 801279a:	1496      	pop      	r4-r9, r15

0801279c <OLED_Init>:
	}					
}

//SSD1306					    
void OLED_Init(void)
{ 	
 801279c:	14d2      	push      	r4-r5, r15
 801279e:	1422      	subi      	r14, r14, 8
	
	I2C_Init(OLED_NUM);
 80127a0:	3000      	movi      	r0, 0
 80127a2:	e3fffedd 	bsr      	0x801255c	// 801255c <I2C_Init>
	uint8_t buf;// = {0xAE,0X40,0XB0,0xC8,0x81,0xff,0xa1,0xa6,0xa8,0x1f,0xd3,0x00,0xd5,0xf0,0xd9,0x22,0xda,0x02,0xdb,0x49,0x8d,0x14,0xaf};
	HAL_Delay(100);
 80127a6:	3064      	movi      	r0, 100
 80127a8:	e000032c 	bsr      	0x8012e00	// 8012e00 <HAL_Delay>
	//addr common  data
	buf = 0xAE;
 80127ac:	3300      	movi      	r3, 0
	HAL_I2C_Write(&hi2c[OLED_NUM], OLED_ADDR, OLED_CMD, &buf, 1);//
 80127ae:	0395      	lrw      	r4, 0x200032e4	// 80129d4 <OLED_Init+0x238>
 80127b0:	3501      	movi      	r5, 1
	buf = 0xAE;
 80127b2:	2b51      	subi      	r3, 82
 80127b4:	dc6e0007 	st.b      	r3, (r14, 0x7)
	HAL_I2C_Write(&hi2c[OLED_NUM], OLED_ADDR, OLED_CMD, &buf, 1);//
 80127b8:	b8a0      	st.w      	r5, (r14, 0x0)
 80127ba:	e46e0006 	addi      	r3, r14, 7
 80127be:	3200      	movi      	r2, 0
 80127c0:	3178      	movi      	r1, 120
 80127c2:	6c13      	mov      	r0, r4
 80127c4:	e0000516 	bsr      	0x80131f0	// 80131f0 <HAL_I2C_Write>
	buf = 0x40;
 80127c8:	3340      	movi      	r3, 64
 80127ca:	dc6e0007 	st.b      	r3, (r14, 0x7)
	HAL_I2C_Write(&hi2c[OLED_NUM], OLED_ADDR, OLED_CMD, &buf, 1);
 80127ce:	b8a0      	st.w      	r5, (r14, 0x0)
 80127d0:	e46e0006 	addi      	r3, r14, 7
 80127d4:	3200      	movi      	r2, 0
 80127d6:	3178      	movi      	r1, 120
 80127d8:	6c13      	mov      	r0, r4
 80127da:	e000050b 	bsr      	0x80131f0	// 80131f0 <HAL_I2C_Write>
	buf = 0xb0;
 80127de:	3300      	movi      	r3, 0
 80127e0:	2b4f      	subi      	r3, 80
 80127e2:	dc6e0007 	st.b      	r3, (r14, 0x7)
	HAL_I2C_Write(&hi2c[OLED_NUM], OLED_ADDR, OLED_CMD, &buf, 1);
 80127e6:	b8a0      	st.w      	r5, (r14, 0x0)
 80127e8:	e46e0006 	addi      	r3, r14, 7
 80127ec:	3200      	movi      	r2, 0
 80127ee:	3178      	movi      	r1, 120
 80127f0:	6c13      	mov      	r0, r4
 80127f2:	e00004ff 	bsr      	0x80131f0	// 80131f0 <HAL_I2C_Write>
	buf = 0xc8;
 80127f6:	3300      	movi      	r3, 0
 80127f8:	2b37      	subi      	r3, 56
 80127fa:	dc6e0007 	st.b      	r3, (r14, 0x7)
	HAL_I2C_Write(&hi2c[OLED_NUM], OLED_ADDR, OLED_CMD, &buf, 1);//---set low column address
 80127fe:	b8a0      	st.w      	r5, (r14, 0x0)
 8012800:	e46e0006 	addi      	r3, r14, 7
 8012804:	3200      	movi      	r2, 0
 8012806:	3178      	movi      	r1, 120
 8012808:	6c13      	mov      	r0, r4
 801280a:	e00004f3 	bsr      	0x80131f0	// 80131f0 <HAL_I2C_Write>
	buf = 0x81;
 801280e:	3300      	movi      	r3, 0
 8012810:	2b7e      	subi      	r3, 127
 8012812:	dc6e0007 	st.b      	r3, (r14, 0x7)
	HAL_I2C_Write(&hi2c[OLED_NUM], OLED_ADDR, OLED_CMD, &buf, 1);
 8012816:	b8a0      	st.w      	r5, (r14, 0x0)
 8012818:	e46e0006 	addi      	r3, r14, 7
 801281c:	3200      	movi      	r2, 0
 801281e:	3178      	movi      	r1, 120
 8012820:	6c13      	mov      	r0, r4
 8012822:	e00004e7 	bsr      	0x80131f0	// 80131f0 <HAL_I2C_Write>
	buf = 0xff;
 8012826:	3300      	movi      	r3, 0
 8012828:	2b00      	subi      	r3, 1
 801282a:	dc6e0007 	st.b      	r3, (r14, 0x7)
	HAL_I2C_Write(&hi2c[OLED_NUM], OLED_ADDR, OLED_CMD, &buf, 1);
 801282e:	b8a0      	st.w      	r5, (r14, 0x0)
 8012830:	e46e0006 	addi      	r3, r14, 7
 8012834:	3200      	movi      	r2, 0
 8012836:	3178      	movi      	r1, 120
 8012838:	6c13      	mov      	r0, r4
 801283a:	e00004db 	bsr      	0x80131f0	// 80131f0 <HAL_I2C_Write>
	buf = 0xa1;
 801283e:	3300      	movi      	r3, 0
 8012840:	2b5e      	subi      	r3, 95
 8012842:	dc6e0007 	st.b      	r3, (r14, 0x7)
	HAL_I2C_Write(&hi2c[OLED_NUM], OLED_ADDR, OLED_CMD, &buf, 1);//-not offset
 8012846:	b8a0      	st.w      	r5, (r14, 0x0)
 8012848:	e46e0006 	addi      	r3, r14, 7
 801284c:	3200      	movi      	r2, 0
 801284e:	3178      	movi      	r1, 120
 8012850:	6c13      	mov      	r0, r4
 8012852:	e00004cf 	bsr      	0x80131f0	// 80131f0 <HAL_I2C_Write>
	buf = 0xa6;
 8012856:	3300      	movi      	r3, 0
 8012858:	2b59      	subi      	r3, 90
 801285a:	dc6e0007 	st.b      	r3, (r14, 0x7)
	HAL_I2C_Write(&hi2c[OLED_NUM], OLED_ADDR, OLED_CMD, &buf, 1);
 801285e:	b8a0      	st.w      	r5, (r14, 0x0)
 8012860:	e46e0006 	addi      	r3, r14, 7
 8012864:	3200      	movi      	r2, 0
 8012866:	3178      	movi      	r1, 120
 8012868:	6c13      	mov      	r0, r4
 801286a:	e00004c3 	bsr      	0x80131f0	// 80131f0 <HAL_I2C_Write>
	buf = 0xa8;
 801286e:	3300      	movi      	r3, 0
 8012870:	2b57      	subi      	r3, 88
 8012872:	dc6e0007 	st.b      	r3, (r14, 0x7)
	HAL_I2C_Write(&hi2c[OLED_NUM], OLED_ADDR, OLED_CMD, &buf, 1);//
 8012876:	b8a0      	st.w      	r5, (r14, 0x0)
 8012878:	e46e0006 	addi      	r3, r14, 7
 801287c:	3200      	movi      	r2, 0
 801287e:	3178      	movi      	r1, 120
 8012880:	6c13      	mov      	r0, r4
 8012882:	e00004b7 	bsr      	0x80131f0	// 80131f0 <HAL_I2C_Write>
	buf = 0x1f;
 8012886:	331f      	movi      	r3, 31
 8012888:	dc6e0007 	st.b      	r3, (r14, 0x7)
	HAL_I2C_Write(&hi2c[OLED_NUM], OLED_ADDR, OLED_CMD, &buf, 1);
 801288c:	b8a0      	st.w      	r5, (r14, 0x0)
 801288e:	e46e0006 	addi      	r3, r14, 7
 8012892:	3200      	movi      	r2, 0
 8012894:	3178      	movi      	r1, 120
 8012896:	6c13      	mov      	r0, r4
 8012898:	e00004ac 	bsr      	0x80131f0	// 80131f0 <HAL_I2C_Write>
	buf = 0xd3;
 801289c:	3300      	movi      	r3, 0
 801289e:	2b2c      	subi      	r3, 45
 80128a0:	dc6e0007 	st.b      	r3, (r14, 0x7)
	HAL_I2C_Write(&hi2c[OLED_NUM], OLED_ADDR, OLED_CMD, &buf, 1);
 80128a4:	b8a0      	st.w      	r5, (r14, 0x0)
 80128a6:	e46e0006 	addi      	r3, r14, 7
 80128aa:	3200      	movi      	r2, 0
 80128ac:	3178      	movi      	r1, 120
 80128ae:	6c13      	mov      	r0, r4
 80128b0:	e00004a0 	bsr      	0x80131f0	// 80131f0 <HAL_I2C_Write>
	buf = 0x00;
 80128b4:	3300      	movi      	r3, 0
 80128b6:	dc6e0007 	st.b      	r3, (r14, 0x7)
	HAL_I2C_Write(&hi2c[OLED_NUM], OLED_ADDR, OLED_CMD, &buf, 1);
 80128ba:	b8a0      	st.w      	r5, (r14, 0x0)
 80128bc:	e46e0006 	addi      	r3, r14, 7
 80128c0:	3200      	movi      	r2, 0
 80128c2:	3178      	movi      	r1, 120
 80128c4:	6c13      	mov      	r0, r4
 80128c6:	e0000495 	bsr      	0x80131f0	// 80131f0 <HAL_I2C_Write>
	buf = 0xd5;	
 80128ca:	3300      	movi      	r3, 0
 80128cc:	2b2a      	subi      	r3, 43
 80128ce:	dc6e0007 	st.b      	r3, (r14, 0x7)
	HAL_I2C_Write(&hi2c[OLED_NUM], OLED_ADDR, OLED_CMD, &buf, 1);
 80128d2:	b8a0      	st.w      	r5, (r14, 0x0)
 80128d4:	e46e0006 	addi      	r3, r14, 7
 80128d8:	3200      	movi      	r2, 0
 80128da:	3178      	movi      	r1, 120
 80128dc:	6c13      	mov      	r0, r4
 80128de:	e0000489 	bsr      	0x80131f0	// 80131f0 <HAL_I2C_Write>
	buf = 0xf0;
 80128e2:	3300      	movi      	r3, 0
 80128e4:	2b0f      	subi      	r3, 16
 80128e6:	dc6e0007 	st.b      	r3, (r14, 0x7)
	HAL_I2C_Write(&hi2c[OLED_NUM], OLED_ADDR, OLED_CMD, &buf, 1);
 80128ea:	b8a0      	st.w      	r5, (r14, 0x0)
 80128ec:	e46e0006 	addi      	r3, r14, 7
 80128f0:	3200      	movi      	r2, 0
 80128f2:	3178      	movi      	r1, 120
 80128f4:	6c13      	mov      	r0, r4
 80128f6:	e000047d 	bsr      	0x80131f0	// 80131f0 <HAL_I2C_Write>
	buf = 0xd9;
 80128fa:	3300      	movi      	r3, 0
 80128fc:	2b26      	subi      	r3, 39
 80128fe:	dc6e0007 	st.b      	r3, (r14, 0x7)
	HAL_I2C_Write(&hi2c[OLED_NUM], OLED_ADDR, OLED_CMD, &buf, 1);
 8012902:	b8a0      	st.w      	r5, (r14, 0x0)
 8012904:	e46e0006 	addi      	r3, r14, 7
 8012908:	3200      	movi      	r2, 0
 801290a:	3178      	movi      	r1, 120
 801290c:	6c13      	mov      	r0, r4
 801290e:	e0000471 	bsr      	0x80131f0	// 80131f0 <HAL_I2C_Write>
	buf = 0x22;
 8012912:	3322      	movi      	r3, 34
 8012914:	dc6e0007 	st.b      	r3, (r14, 0x7)
	HAL_I2C_Write(&hi2c[OLED_NUM], OLED_ADDR, OLED_CMD, &buf, 1);
 8012918:	b8a0      	st.w      	r5, (r14, 0x0)
 801291a:	e46e0006 	addi      	r3, r14, 7
 801291e:	3200      	movi      	r2, 0
 8012920:	3178      	movi      	r1, 120
 8012922:	6c13      	mov      	r0, r4
 8012924:	e0000466 	bsr      	0x80131f0	// 80131f0 <HAL_I2C_Write>
	buf = 0xda;
 8012928:	3300      	movi      	r3, 0
 801292a:	2b25      	subi      	r3, 38
 801292c:	dc6e0007 	st.b      	r3, (r14, 0x7)
	HAL_I2C_Write(&hi2c[OLED_NUM], OLED_ADDR, OLED_CMD, &buf, 1);
 8012930:	b8a0      	st.w      	r5, (r14, 0x0)
 8012932:	e46e0006 	addi      	r3, r14, 7
 8012936:	3200      	movi      	r2, 0
 8012938:	3178      	movi      	r1, 120
 801293a:	6c13      	mov      	r0, r4
 801293c:	e000045a 	bsr      	0x80131f0	// 80131f0 <HAL_I2C_Write>
	buf = 0x02;
 8012940:	3302      	movi      	r3, 2
 8012942:	dc6e0007 	st.b      	r3, (r14, 0x7)
	HAL_I2C_Write(&hi2c[OLED_NUM], OLED_ADDR, OLED_CMD, &buf, 1);
 8012946:	b8a0      	st.w      	r5, (r14, 0x0)
 8012948:	e46e0006 	addi      	r3, r14, 7
 801294c:	3200      	movi      	r2, 0
 801294e:	3178      	movi      	r1, 120
 8012950:	6c13      	mov      	r0, r4
 8012952:	e000044f 	bsr      	0x80131f0	// 80131f0 <HAL_I2C_Write>
	buf = 0x8d;
 8012956:	3300      	movi      	r3, 0
 8012958:	2b72      	subi      	r3, 115
 801295a:	dc6e0007 	st.b      	r3, (r14, 0x7)
	HAL_I2C_Write(&hi2c[OLED_NUM], OLED_ADDR, OLED_CMD, &buf, 1);
 801295e:	b8a0      	st.w      	r5, (r14, 0x0)
 8012960:	e46e0006 	addi      	r3, r14, 7
 8012964:	3200      	movi      	r2, 0
 8012966:	3178      	movi      	r1, 120
 8012968:	6c13      	mov      	r0, r4
 801296a:	e0000443 	bsr      	0x80131f0	// 80131f0 <HAL_I2C_Write>
	buf = 0x14;
 801296e:	3314      	movi      	r3, 20
 8012970:	dc6e0007 	st.b      	r3, (r14, 0x7)
	HAL_I2C_Write(&hi2c[OLED_NUM], OLED_ADDR, OLED_CMD, &buf, 1);
 8012974:	b8a0      	st.w      	r5, (r14, 0x0)
 8012976:	e46e0006 	addi      	r3, r14, 7
 801297a:	3200      	movi      	r2, 0
 801297c:	3178      	movi      	r1, 120
 801297e:	6c13      	mov      	r0, r4
 8012980:	e0000438 	bsr      	0x80131f0	// 80131f0 <HAL_I2C_Write>
	buf = 0xdb;
 8012984:	3300      	movi      	r3, 0
 8012986:	2b24      	subi      	r3, 37
 8012988:	dc6e0007 	st.b      	r3, (r14, 0x7)
	HAL_I2C_Write(&hi2c[OLED_NUM], OLED_ADDR, OLED_CMD, &buf, 1);
 801298c:	b8a0      	st.w      	r5, (r14, 0x0)
 801298e:	e46e0006 	addi      	r3, r14, 7
 8012992:	3200      	movi      	r2, 0
 8012994:	3178      	movi      	r1, 120
 8012996:	6c13      	mov      	r0, r4
 8012998:	e000042c 	bsr      	0x80131f0	// 80131f0 <HAL_I2C_Write>
	buf = 0x49;
 801299c:	3349      	movi      	r3, 73
 801299e:	dc6e0007 	st.b      	r3, (r14, 0x7)
	HAL_I2C_Write(&hi2c[OLED_NUM], OLED_ADDR, OLED_CMD, &buf, 1);	
 80129a2:	b8a0      	st.w      	r5, (r14, 0x0)
 80129a4:	e46e0006 	addi      	r3, r14, 7
 80129a8:	3200      	movi      	r2, 0
 80129aa:	3178      	movi      	r1, 120
 80129ac:	6c13      	mov      	r0, r4
 80129ae:	e0000421 	bsr      	0x80131f0	// 80131f0 <HAL_I2C_Write>
	buf = 0xaf;
 80129b2:	3300      	movi      	r3, 0
 80129b4:	2b50      	subi      	r3, 81
 80129b6:	dc6e0007 	st.b      	r3, (r14, 0x7)
	HAL_I2C_Write(&hi2c[OLED_NUM], OLED_ADDR, OLED_CMD, &buf, 1);	
 80129ba:	3200      	movi      	r2, 0
 80129bc:	e46e0006 	addi      	r3, r14, 7
 80129c0:	3178      	movi      	r1, 120
 80129c2:	b8a0      	st.w      	r5, (r14, 0x0)
 80129c4:	6c13      	mov      	r0, r4
 80129c6:	e0000415 	bsr      	0x80131f0	// 80131f0 <HAL_I2C_Write>
	
	OLED_Clear();
 80129ca:	e3fffe03 	bsr      	0x80125d0	// 80125d0 <OLED_Clear>
}  
 80129ce:	1402      	addi      	r14, r14, 8
 80129d0:	1492      	pop      	r4-r5, r15
 80129d2:	0000      	.short	0x0000
 80129d4:	200032e4 	.long	0x200032e4

080129d8 <INA226_Read2Byte>:
#include "ina226.h"
#include "iic.h"


uint16_t INA226_Read2Byte(uint8_t dev_addr, uint8_t reg_addr)
{
 80129d8:	14d0      	push      	r15
 80129da:	1422      	subi      	r14, r14, 8
	uint8_t reg_data_8[2] = {0};
 80129dc:	3300      	movi      	r3, 0
 80129de:	dc6e1002 	st.h      	r3, (r14, 0x4)
	uint16_t reg_data_16 = 0xffff;
	uint8_t state = 0;
	state = HAL_I2C_Read(&hi2c[INA226_NUM], dev_addr, reg_addr, reg_data_8, 2);
 80129e2:	3302      	movi      	r3, 2
 80129e4:	b860      	st.w      	r3, (r14, 0x0)
 80129e6:	6c87      	mov      	r2, r1
 80129e8:	1b01      	addi      	r3, r14, 4
 80129ea:	6c43      	mov      	r1, r0
 80129ec:	1009      	lrw      	r0, 0x200032f4	// 8012a10 <INA226_Read2Byte+0x38>
 80129ee:	e0000439 	bsr      	0x8013260	// 8013260 <HAL_I2C_Read>
	if(state == HAL_ERROR)
 80129f2:	7400      	zextb      	r0, r0
 80129f4:	3841      	cmpnei      	r0, 1
 80129f6:	0c09      	bf      	0x8012a08	// 8012a08 <INA226_Read2Byte+0x30>
	{
		printf("IIC read ERROR \r\n");
	}
	reg_data_16 = reg_data_8[0];
	reg_data_16=(reg_data_16<<8)&0xFF00;
 80129f8:	d86e0004 	ld.b      	r3, (r14, 0x4)
 80129fc:	4368      	lsli      	r3, r3, 8
	reg_data_16|=reg_data_8[1];
 80129fe:	d80e0005 	ld.b      	r0, (r14, 0x5)
	return reg_data_16;
}
 8012a02:	6c0c      	or      	r0, r3
 8012a04:	1402      	addi      	r14, r14, 8
 8012a06:	1490      	pop      	r15
		printf("IIC read ERROR \r\n");
 8012a08:	1003      	lrw      	r0, 0x8015434	// 8012a14 <INA226_Read2Byte+0x3c>
 8012a0a:	e3fff871 	bsr      	0x8011aec	// 8011aec <__GI_puts>
 8012a0e:	07f5      	br      	0x80129f8	// 80129f8 <INA226_Read2Byte+0x20>
 8012a10:	200032f4 	.long	0x200032f4
 8012a14:	08015434 	.long	0x08015434

08012a18 <INA226_Write2Byte>:

uint8_t INA226_Write2Byte(uint8_t dev_addr, uint8_t reg_addr,uint16_t reg_data)
{       
 8012a18:	14d0      	push      	r15
 8012a1a:	1422      	subi      	r14, r14, 8
	uint8_t state = 0;
	uint8_t temp[2] = {0};
	temp[0] = (uint8_t)((reg_data&0xFF00)>>8);
 8012a1c:	4a68      	lsri      	r3, r2, 8
 8012a1e:	dc6e0004 	st.b      	r3, (r14, 0x4)
	temp[1] = (uint8_t)reg_data&0x00FF;
	state = HAL_I2C_Write(&hi2c[INA226_NUM], dev_addr, reg_addr, temp, 2);	
 8012a22:	3302      	movi      	r3, 2
	temp[1] = (uint8_t)reg_data&0x00FF;
 8012a24:	dc4e0005 	st.b      	r2, (r14, 0x5)
	state = HAL_I2C_Write(&hi2c[INA226_NUM], dev_addr, reg_addr, temp, 2);	
 8012a28:	b860      	st.w      	r3, (r14, 0x0)
 8012a2a:	6c87      	mov      	r2, r1
 8012a2c:	1b01      	addi      	r3, r14, 4
 8012a2e:	6c43      	mov      	r1, r0
 8012a30:	1008      	lrw      	r0, 0x200032f4	// 8012a50 <INA226_Write2Byte+0x38>
 8012a32:	e00003df 	bsr      	0x80131f0	// 80131f0 <HAL_I2C_Write>
	if(state == HAL_ERROR)
 8012a36:	7400      	zextb      	r0, r0
 8012a38:	3841      	cmpnei      	r0, 1
 8012a3a:	0c04      	bf      	0x8012a42	// 8012a42 <INA226_Write2Byte+0x2a>
	{
		printf("IIC write ERROR \r\n");
	}

	return 1;
}
 8012a3c:	3001      	movi      	r0, 1
 8012a3e:	1402      	addi      	r14, r14, 8
 8012a40:	1490      	pop      	r15
		printf("IIC write ERROR \r\n");
 8012a42:	1005      	lrw      	r0, 0x8015448	// 8012a54 <INA226_Write2Byte+0x3c>
 8012a44:	e3fff854 	bsr      	0x8011aec	// 8011aec <__GI_puts>
}
 8012a48:	3001      	movi      	r0, 1
 8012a4a:	1402      	addi      	r14, r14, 8
 8012a4c:	1490      	pop      	r15
 8012a4e:	0000      	.short	0x0000
 8012a50:	200032f4 	.long	0x200032f4
 8012a54:	08015448 	.long	0x08015448

08012a58 <Get_Shunt_voltage>:
	return Value;
}
 
//
float Get_Shunt_voltage()//mV
{
 8012a58:	14d0      	push      	r15
	temp = INA226_Read2Byte(dev_addr, Shunt_V_Reg);
 8012a5a:	3101      	movi      	r1, 1
 8012a5c:	3081      	movi      	r0, 129
 8012a5e:	e3ffffbd 	bsr      	0x80129d8	// 80129d8 <INA226_Read2Byte>
 8012a62:	74c3      	sexth      	r3, r0
	if(temp&0x8000)	temp = ~(temp - 1);	
 8012a64:	e9a30005 	bhsz      	r3, 0x8012a6e	// 8012a6e <Get_Shunt_voltage+0x16>
 8012a68:	3300      	movi      	r3, 0
 8012a6a:	60c2      	subu      	r3, r0
 8012a6c:	74cf      	sexth      	r3, r3
	float Value;
	Value = INA226_GetShuntVoltage(INA226_READ_ADDR)*INA226_VAL_LSB*0.001;//2.5
 8012a6e:	74cd      	zexth      	r3, r3
 8012a70:	f4031b60 	fmtvrl      	fr0, r3
 8012a74:	ea234020 	movih      	r3, 16416
 8012a78:	f4031b61 	fmtvrl      	fr1, r3
 8012a7c:	f4001a00 	fsitos      	fr0, fr0
 8012a80:	f4200200 	fmuls      	fr0, fr0, fr1
 8012a84:	e3fff144 	bsr      	0x8010d0c	// 8010d0c <__extendsfdf2>
 8012a88:	1044      	lrw      	r2, 0xd2f1a9fc	// 8012a98 <Get_Shunt_voltage+0x40>
 8012a8a:	1065      	lrw      	r3, 0x3f50624d	// 8012a9c <Get_Shunt_voltage+0x44>
 8012a8c:	e3fff2ee 	bsr      	0x8011068	// 8011068 <__muldf3>
 8012a90:	e3fff574 	bsr      	0x8011578	// 8011578 <__truncdfsf2>
	return Value;
}
 8012a94:	1490      	pop      	r15
 8012a96:	0000      	.short	0x0000
 8012a98:	d2f1a9fc 	.long	0xd2f1a9fc
 8012a9c:	3f50624d 	.long	0x3f50624d

08012aa0 <Get_Power>:
	return Current;
}

//=  * 
float Get_Power()//W
{
 8012aa0:	14d0      	push      	r15
 8012aa2:	1421      	subi      	r14, r14, 4
 8012aa4:	f40e2408 	fsts      	fr8, (r14, 0x0)
 8012aa8:	1421      	subi      	r14, r14, 4
	temp = INA226_Read2Byte(dev_addr, Bus_V_Reg);
 8012aaa:	3102      	movi      	r1, 2
 8012aac:	3081      	movi      	r0, 129
 8012aae:	e3ffff95 	bsr      	0x80129d8	// 80129d8 <INA226_Read2Byte>
	Value = INA226_GetVoltage(INA226_READ_ADDR)*Voltage_LSB;
 8012ab2:	f4001b60 	fmtvrl      	fr0, r0
 8012ab6:	ea233fa0 	movih      	r3, 16288
 8012aba:	f4031b68 	fmtvrl      	fr8, r3
 8012abe:	f4001a00 	fsitos      	fr0, fr0
	temp = INA226_Read2Byte(dev_addr, Current_Reg);
 8012ac2:	3104      	movi      	r1, 4
 8012ac4:	3081      	movi      	r0, 129
	Value = INA226_GetVoltage(INA226_READ_ADDR)*Voltage_LSB;
 8012ac6:	f5000208 	fmuls      	fr8, fr0, fr8
	temp = INA226_Read2Byte(dev_addr, Current_Reg);
 8012aca:	e3ffff87 	bsr      	0x80129d8	// 80129d8 <INA226_Read2Byte>
 8012ace:	b800      	st.w      	r0, (r14, 0x0)
	if(temp&0x8000)	temp = ~(temp - 1);	
 8012ad0:	d86e1000 	ld.h      	r3, (r14, 0x0)
 8012ad4:	74cf      	sexth      	r3, r3
 8012ad6:	e9a30006 	bhsz      	r3, 0x8012ae2	// 8012ae2 <Get_Power+0x42>
 8012ada:	3300      	movi      	r3, 0
 8012adc:	60c2      	subu      	r3, r0
 8012ade:	74cd      	zexth      	r3, r3
 8012ae0:	b860      	st.w      	r3, (r14, 0x0)
	Current = INA226_GetShunt_Current(INA226_READ_ADDR)* CURRENT_LSB;
 8012ae2:	f40e2000 	flds      	fr0, (r14, 0x0)
 8012ae6:	106e      	lrw      	r3, 0x3dcccccd	// 8012b1c <Get_Power+0x7c>
 8012ae8:	f4001a01 	fsitos      	fr1, fr0
 8012aec:	f4031b60 	fmtvrl      	fr0, r3
 8012af0:	f4010201 	fmuls      	fr1, fr1, fr0
	float mA = 0;
	float Power = 0.0;
	mV = Get_Voltage();			//mV
	mA= Get_Shunt_Current();	//mA
	mA = (int)mA;
	Power = (mV/1000) * (mA/1000); 	//mV*mA
 8012af4:	ea23447a 	movih      	r3, 17530
	mA = (int)mA;
 8012af8:	f4011821 	fstosi.rz      	fr1, fr1
	Power = (mV/1000) * (mA/1000); 	//mV*mA
 8012afc:	f4031b60 	fmtvrl      	fr0, r3
	mA = (int)mA;
 8012b00:	f4011a01 	fsitos      	fr1, fr1
	Power = (mV/1000) * (mA/1000); 	//mV*mA
 8012b04:	f4010301 	fdivs      	fr1, fr1, fr0
 8012b08:	f4080300 	fdivs      	fr0, fr8, fr0
	return Power;
}
 8012b0c:	f4010200 	fmuls      	fr0, fr1, fr0
 8012b10:	1401      	addi      	r14, r14, 4
 8012b12:	f40e2008 	flds      	fr8, (r14, 0x0)
 8012b16:	1401      	addi      	r14, r14, 4
 8012b18:	1490      	pop      	r15
 8012b1a:	0000      	.short	0x0000
 8012b1c:	3dcccccd 	.long	0x3dcccccd

08012b20 <Get_INA226_All_Value>:
	return Power;
}


void Get_INA226_All_Value(INA226_VALUE *ina226_value)
{
 8012b20:	14d1      	push      	r4, r15
 8012b22:	1421      	subi      	r14, r14, 4
 8012b24:	6d03      	mov      	r4, r0
	temp = INA226_Read2Byte(dev_addr, Bus_V_Reg);
 8012b26:	3102      	movi      	r1, 2
 8012b28:	3081      	movi      	r0, 129
 8012b2a:	e3ffff57 	bsr      	0x80129d8	// 80129d8 <INA226_Read2Byte>
	Value = INA226_GetVoltage(INA226_READ_ADDR)*Voltage_LSB;
 8012b2e:	f4001b60 	fmtvrl      	fr0, r0
 8012b32:	ea233fa0 	movih      	r3, 16288
 8012b36:	f4031b61 	fmtvrl      	fr1, r3
 8012b3a:	f4001a00 	fsitos      	fr0, fr0
 8012b3e:	f4200200 	fmuls      	fr0, fr0, fr1
	ina226_value->Bus_V = Get_Voltage();  			//mv
 8012b42:	f4042400 	fsts      	fr0, (r4, 0x0)
	ina226_value->Shunt_V = Get_Shunt_voltage();	//uv
 8012b46:	e3ffff89 	bsr      	0x8012a58	// 8012a58 <Get_Shunt_voltage>
 8012b4a:	f4042410 	fsts      	fr0, (r4, 0x4)
	temp = INA226_Read2Byte(dev_addr, Current_Reg);
 8012b4e:	3104      	movi      	r1, 4
 8012b50:	3081      	movi      	r0, 129
 8012b52:	e3ffff43 	bsr      	0x80129d8	// 80129d8 <INA226_Read2Byte>
 8012b56:	b800      	st.w      	r0, (r14, 0x0)
	if(temp&0x8000)	temp = ~(temp - 1);	
 8012b58:	d86e1000 	ld.h      	r3, (r14, 0x0)
 8012b5c:	74cf      	sexth      	r3, r3
 8012b5e:	e9a30006 	bhsz      	r3, 0x8012b6a	// 8012b6a <Get_INA226_All_Value+0x4a>
 8012b62:	3300      	movi      	r3, 0
 8012b64:	60c2      	subu      	r3, r0
 8012b66:	74cd      	zexth      	r3, r3
 8012b68:	b860      	st.w      	r3, (r14, 0x0)
	Current = INA226_GetShunt_Current(INA226_READ_ADDR)* CURRENT_LSB;
 8012b6a:	f40e2000 	flds      	fr0, (r14, 0x0)
 8012b6e:	1068      	lrw      	r3, 0x3dcccccd	// 8012b8c <Get_INA226_All_Value+0x6c>
 8012b70:	f4031b61 	fmtvrl      	fr1, r3
 8012b74:	f4001a00 	fsitos      	fr0, fr0
 8012b78:	f4200200 	fmuls      	fr0, fr0, fr1
	ina226_value->Current = Get_Shunt_Current();	//ma	
 8012b7c:	f4042420 	fsts      	fr0, (r4, 0x8)
	ina226_value->Power = Get_Power();				//mw
 8012b80:	e3ffff90 	bsr      	0x8012aa0	// 8012aa0 <Get_Power>
 8012b84:	f4042430 	fsts      	fr0, (r4, 0xc)
}
 8012b88:	1401      	addi      	r14, r14, 4
 8012b8a:	1491      	pop      	r4, r15
 8012b8c:	3dcccccd 	.long	0x3dcccccd

08012b90 <INA226_Init>:
 
 
void INA226_Init(void)
{
 8012b90:	14d0      	push      	r15
	
	I2C_Init(INA226_NUM);
 8012b92:	3001      	movi      	r0, 1
 8012b94:	e3fffce4 	bsr      	0x801255c	// 801255c <I2C_Init>
	INA226_Write2Byte(INA226_WRITE_ADDR, Config_Reg, 0x8000);		//
 8012b98:	ea028000 	movi      	r2, 32768
 8012b9c:	3100      	movi      	r1, 0
 8012b9e:	3080      	movi      	r0, 128
 8012ba0:	e3ffff3c 	bsr      	0x8012a18	// 8012a18 <INA226_Write2Byte>
	//0b0100101001001111,204us,256 204*256 = 53ms
	//0x484f204us,128204*128 = 26ms
	//0x452716,1.1ms,1.1ms,
	INA226_Write2Byte(INA226_WRITE_ADDR, Config_Reg, 0b0100101001001111);		
 8012ba4:	ea024a4f 	movi      	r2, 19023
 8012ba8:	3100      	movi      	r1, 0
 8012baa:	3080      	movi      	r0, 128
 8012bac:	e3ffff36 	bsr      	0x8012a18	// 8012a18 <INA226_Write2Byte>
	INA226_Write2Byte(INA226_WRITE_ADDR, Calib_Reg, CAL);		//
 8012bb0:	ea020800 	movi      	r2, 2048
 8012bb4:	3105      	movi      	r1, 5
 8012bb6:	3080      	movi      	r0, 128
 8012bb8:	e3ffff30 	bsr      	0x8012a18	// 8012a18 <INA226_Write2Byte>
	/*
	I2C_Init(INA226_NUM);
	INA226_Write2Byte(Config_Reg, 0x4527);//0100_010_100_100_111 
	INA226_Write2Byte(Calib_Reg, 0x0A00);
	*/
}
 8012bbc:	1490      	pop      	r15
	...

08012bc0 <HAL_ADC_Init>:
	}
	return value;
}

HAL_StatusTypeDef HAL_ADC_Init(ADC_HandleTypeDef* hadc)
{
 8012bc0:	14d1      	push      	r4, r15
 8012bc2:	1423      	subi      	r14, r14, 12
 8012bc4:	6d03      	mov      	r4, r0
	uint32_t div;
	wm_sys_clk sysclk;
	
	if (hadc == NULL)
 8012bc6:	e9000064 	bez      	r0, 0x8012c8e	// 8012c8e <HAL_ADC_Init+0xce>
	
	assert_param(IS_ADC_ALL_INSTANCE(hadc->Instance));
	assert_param(IS_ADC_CHANNEL(hadc->Init.channel));
	assert_param(IS_ADC_FREQUENCY(hadc->Init.freq));
	
	hadc->Lock = HAL_UNLOCKED;
 8012bca:	3300      	movi      	r3, 0
 8012bcc:	b065      	st.w      	r3, (r0, 0x14)
	
	HAL_ADC_MspInit(hadc);
 8012bce:	e3fffb1b 	bsr      	0x8012204	// 8012204 <HAL_ADC_MspInit>
	
	SystemClock_Get(&sysclk);
 8012bd2:	6c3b      	mov      	r0, r14
 8012bd4:	e000008a 	bsr      	0x8012ce8	// 8012ce8 <SystemClock_Get>
	div = sysclk.apbclk * 1000000 / (hadc->Init.freq) / 512;
 8012bd8:	9860      	ld.w      	r3, (r14, 0x0)
 8012bda:	ea00f424 	movi      	r0, 62500
 8012bde:	c4804900 	rotli      	r0, r0, 4
 8012be2:	7cc0      	mult      	r3, r0
 8012be4:	9402      	ld.w      	r0, (r4, 0x8)
	MODIFY_REG(RCC->CLK_SEL, RCC_CLK_SEL_ADC_DIV, ((div & 0xFF) << RCC_CLK_SEL_ADC_DIV_Pos));
 8012be6:	ea224000 	movih      	r2, 16384
 8012bea:	e4420dff 	addi      	r2, r2, 3584
	div = sysclk.apbclk * 1000000 / (hadc->Init.freq) / 512;
 8012bee:	c4038023 	divu      	r3, r3, r0
	MODIFY_REG(RCC->CLK_SEL, RCC_CLK_SEL_ADC_DIV, ((div & 0xFF) << RCC_CLK_SEL_ADC_DIV_Pos));
 8012bf2:	4b61      	lsri      	r3, r3, 1
 8012bf4:	ea00ff00 	movi      	r0, 65280
 8012bf8:	9225      	ld.w      	r1, (r2, 0x14)
 8012bfa:	68c0      	and      	r3, r0
 8012bfc:	ea00ff00 	movi      	r0, 65280
 8012c00:	6c02      	nor      	r0, r0
 8012c02:	6840      	and      	r1, r0
 8012c04:	6cc4      	or      	r3, r1
 8012c06:	b265      	st.w      	r3, (r2, 0x14)
	SET_BIT(RCC->CLK_DIV, RCC_CLK_DIV_FREQ_EN);
 8012c08:	9264      	ld.w      	r3, (r2, 0x10)
 8012c0a:	3bbf      	bseti      	r3, 31
 8012c0c:	b264      	st.w      	r3, (r2, 0x10)
	
	MODIFY_REG(hadc->Instance->ADC_CR, ADC_ADC_CR_DMAEN | ADC_ADC_CR_SWITCHTIME | ADC_ADC_CR_INITTIME, 
 8012c0e:	9440      	ld.w      	r2, (r4, 0x0)
 8012c10:	1121      	lrw      	r1, 0xc00c00fc	// 8012c94 <HAL_ADC_Init+0xd4>
 8012c12:	9264      	ld.w      	r3, (r2, 0x10)
 8012c14:	68c4      	and      	r3, r1
 8012c16:	1121      	lrw      	r1, 0x5005002	// 8012c98 <HAL_ADC_Init+0xd8>
 8012c18:	6cc4      	or      	r3, r1
 8012c1a:	b264      	st.w      	r3, (r2, 0x10)
	(0x50 << ADC_ADC_CR_SWITCHTIME_Pos) | (0x50 << ADC_ADC_CR_INITTIME_Pos) | ADC_ADC_CR_ADCIE);
	
	MODIFY_REG(hadc->Instance->PGA_CR,  ADC_PGA_CR_GAIN | ADC_PGA_CR_BPREF | ADC_PGA_CR_BP,   ADC_PGA_CR_CHOPEN | ADC_PGA_CR_PGAEN);
 8012c1c:	9262      	ld.w      	r3, (r2, 0x8)
 8012c1e:	ea0101ff 	movi      	r1, 511
 8012c22:	6c46      	nor      	r1, r1
 8012c24:	68c4      	and      	r3, r1
 8012c26:	ec630003 	ori      	r3, r3, 3
 8012c2a:	b262      	st.w      	r3, (r2, 0x8)
	//MODIFY_REG(hadc->Instance->PGA_CR, ADC_PGA_CR_BPREF  | ADC_PGA_CR_GAIN |ADC_PGA_CR_BP,  ADC_PGA_CR_CHOPEN | ADC_PGA_CR_PGAEN);
	//printf("PGA_CR: %x  %x   %x\r\n",READ_REG(hadc->Instance->PGA_CR),  
	//(((READ_REG(hadc->Instance->PGA_CR)) & (~(ADC_PGA_CR_BPREF | ADC_PGA_CR_BP))) | (ADC_PGA_CR_GAIN | ADC_PGA_CR_CHOPEN | ADC_PGA_CR_PGAEN)),
	//ADC_PGA_CR_GAIN);
	// offset
	MODIFY_REG(hadc->Instance->ANA_CR, ADC_ANA_CR_CH | ADC_ANA_CR_PD, ADC_ANA_CR_RST | ADC_ANA_CR_LDOEN | ADC_ANA_CR_CH_OFFSET );
 8012c2c:	9261      	ld.w      	r3, (r2, 0x4)
 8012c2e:	ea010f07 	movi      	r1, 3847
 8012c32:	6c46      	nor      	r1, r1
 8012c34:	68c4      	and      	r3, r1
 8012c36:	ec630e03 	ori      	r3, r3, 3587
 8012c3a:	b261      	st.w      	r3, (r2, 0x4)
 8012c3c:	3104      	movi      	r1, 4
	while (1)
	{
		if (HAL_IS_BIT_SET(hadc->Instance->IF, ADC_IF_ADC))
		{
			count++;
			__HAL_ADC_CLEAR_FLAG(hadc, ADC_IF_ADC);
 8012c3e:	3001      	movi      	r0, 1
		if (HAL_IS_BIT_SET(hadc->Instance->IF, ADC_IF_ADC))
 8012c40:	9265      	ld.w      	r3, (r2, 0x14)
 8012c42:	e4632001 	andi      	r3, r3, 1
 8012c46:	e903fffd 	bez      	r3, 0x8012c40	// 8012c40 <HAL_ADC_Init+0x80>
 8012c4a:	2900      	subi      	r1, 1
			__HAL_ADC_CLEAR_FLAG(hadc, ADC_IF_ADC);
 8012c4c:	b205      	st.w      	r0, (r2, 0x14)
			if(count == 4)
 8012c4e:	e921fff9 	bnez      	r1, 0x8012c40	// 8012c40 <HAL_ADC_Init+0x80>
	value = ADC->DR;
 8012c52:	ea234001 	movih      	r3, 16385
 8012c56:	3ba9      	bseti      	r3, 9
	if (value & 0x20000)
 8012c58:	ea210002 	movih      	r1, 2
	value = ADC->DR;
 8012c5c:	9360      	ld.w      	r3, (r3, 0x0)
	if (value & 0x20000)
 8012c5e:	684c      	and      	r1, r3
 8012c60:	e9210012 	bnez      	r1, 0x8012c84	// 8012c84 <HAL_ADC_Init+0xc4>
	value = value & 0x3FFFC;
 8012c64:	c6205021 	bmaski      	r1, 18
 8012c68:	2902      	subi      	r1, 3
 8012c6a:	68c4      	and      	r3, r1
		value |= 0x20000;
 8012c6c:	3bb1      	bseti      	r3, 17
	__HAL_ADC_DISABLE(hadc);
 8012c6e:	3100      	movi      	r1, 0
	hadc->offset = _Get_Result();
 8012c70:	b466      	st.w      	r3, (r4, 0x18)
	__HAL_ADC_DISABLE(hadc);
 8012c72:	2907      	subi      	r1, 8
 8012c74:	9261      	ld.w      	r3, (r2, 0x4)
 8012c76:	68c4      	and      	r3, r1
 8012c78:	ec630004 	ori      	r3, r3, 4
	return HAL_OK;
 8012c7c:	3000      	movi      	r0, 0
	__HAL_ADC_DISABLE(hadc);
 8012c7e:	b261      	st.w      	r3, (r2, 0x4)
}
 8012c80:	1403      	addi      	r14, r14, 12
 8012c82:	1491      	pop      	r4, r15
		value &= 0x1FFFF;
 8012c84:	c6005021 	bmaski      	r1, 17
 8012c88:	2902      	subi      	r1, 3
 8012c8a:	68c4      	and      	r3, r1
 8012c8c:	07f1      	br      	0x8012c6e	// 8012c6e <HAL_ADC_Init+0xae>
		return HAL_ERROR;
 8012c8e:	3001      	movi      	r0, 1
}
 8012c90:	1403      	addi      	r14, r14, 12
 8012c92:	1491      	pop      	r4, r15
 8012c94:	c00c00fc 	.long	0xc00c00fc
 8012c98:	05005002 	.long	0x05005002

08012c9c <HAL_ADC_CompareCallback>:
}

__attribute__((weak)) void HAL_ADC_CompareCallback(ADC_HandleTypeDef* hadc)
{
	UNUSED(hadc);
}
 8012c9c:	783c      	jmp      	r15
	...

08012ca0 <HAL_ADC_IRQHandler>:

void HAL_ADC_IRQHandler(ADC_HandleTypeDef* hadc)
{
 8012ca0:	14d1      	push      	r4, r15
	assert_param(IS_ADC_ALL_INSTANCE(hadc->Instance));
	
	if (__HAL_ADC_GET_IT_SOURCE(hadc, ADC_ADC_CR_ADCIE))
 8012ca2:	9060      	ld.w      	r3, (r0, 0x0)
{
 8012ca4:	6d03      	mov      	r4, r0
	if (__HAL_ADC_GET_IT_SOURCE(hadc, ADC_ADC_CR_ADCIE))
 8012ca6:	9344      	ld.w      	r2, (r3, 0x10)
 8012ca8:	e4422002 	andi      	r2, r2, 2
 8012cac:	e9020007 	bez      	r2, 0x8012cba	// 8012cba <HAL_ADC_IRQHandler+0x1a>
	{
		if (__HAL_ADC_GET_FLAG(hadc, ADC_IF_ADC))
 8012cb0:	9345      	ld.w      	r2, (r3, 0x14)
 8012cb2:	e4422001 	andi      	r2, r2, 1
 8012cb6:	e9220013 	bnez      	r2, 0x8012cdc	// 8012cdc <HAL_ADC_IRQHandler+0x3c>
		{
			__HAL_ADC_CLEAR_FLAG(hadc, ADC_IF_ADC);
			HAL_ADC_ConvCpltCallback(hadc);
		}
	}
	if (__HAL_ADC_GET_IT_SOURCE(hadc, ADC_ADC_CR_CMPIE))
 8012cba:	9344      	ld.w      	r2, (r3, 0x10)
 8012cbc:	e4422020 	andi      	r2, r2, 32
 8012cc0:	e9020007 	bez      	r2, 0x8012cce	// 8012cce <HAL_ADC_IRQHandler+0x2e>
	{
		if (__HAL_ADC_GET_FLAG(hadc, ADC_IF_CMP))
 8012cc4:	9345      	ld.w      	r2, (r3, 0x14)
 8012cc6:	e4422002 	andi      	r2, r2, 2
 8012cca:	e9220003 	bnez      	r2, 0x8012cd0	// 8012cd0 <HAL_ADC_IRQHandler+0x30>
		{
			__HAL_ADC_CLEAR_FLAG(hadc, ADC_IF_CMP);
			HAL_ADC_CompareCallback(hadc);
		}
	}
}
 8012cce:	1491      	pop      	r4, r15
			__HAL_ADC_CLEAR_FLAG(hadc, ADC_IF_CMP);
 8012cd0:	3202      	movi      	r2, 2
 8012cd2:	b345      	st.w      	r2, (r3, 0x14)
			HAL_ADC_CompareCallback(hadc);
 8012cd4:	6c13      	mov      	r0, r4
 8012cd6:	e3ffffe3 	bsr      	0x8012c9c	// 8012c9c <HAL_ADC_CompareCallback>
}
 8012cda:	1491      	pop      	r4, r15
			__HAL_ADC_CLEAR_FLAG(hadc, ADC_IF_ADC);
 8012cdc:	3201      	movi      	r2, 1
 8012cde:	b345      	st.w      	r2, (r3, 0x14)
			HAL_ADC_ConvCpltCallback(hadc);
 8012ce0:	e3fffbe4 	bsr      	0x80124a8	// 80124a8 <HAL_ADC_ConvCpltCallback>
 8012ce4:	9460      	ld.w      	r3, (r4, 0x0)
 8012ce6:	07ea      	br      	0x8012cba	// 8012cba <HAL_ADC_IRQHandler+0x1a>

08012ce8 <SystemClock_Get>:
 */
void SystemClock_Get(wm_sys_clk *sysclk)
{
	clk_div_reg clk_div;

	clk_div.w = READ_REG(RCC->CLK_DIV);
 8012ce8:	ea234000 	movih      	r3, 16384
 8012cec:	e4630dff 	addi      	r3, r3, 3584
	sysclk->cpuclk = W805_PLL_CLK_MHZ/(clk_div.b.CPU);
 8012cf0:	ea0101e0 	movi      	r1, 480
	clk_div.w = READ_REG(RCC->CLK_DIV);
 8012cf4:	9344      	ld.w      	r2, (r3, 0x10)
	sysclk->cpuclk = W805_PLL_CLK_MHZ/(clk_div.b.CPU);
 8012cf6:	74c8      	zextb      	r3, r2
 8012cf8:	c4618043 	divs      	r3, r1, r3
	sysclk->wlanclk = W805_PLL_CLK_MHZ/(clk_div.b.WLAN);
 8012cfc:	c50255ec 	zext      	r12, r2, 15, 8
	sysclk->apbclk = sysclk->cpuclk / clk_div.b.BUS2;
 8012d00:	c60256e2 	zext      	r2, r2, 23, 16
	sysclk->cpuclk = W805_PLL_CLK_MHZ/(clk_div.b.CPU);
 8012d04:	b061      	st.w      	r3, (r0, 0x4)
	sysclk->wlanclk = W805_PLL_CLK_MHZ/(clk_div.b.WLAN);
 8012d06:	c5818041 	divs      	r1, r1, r12
	sysclk->apbclk = sysclk->cpuclk / clk_div.b.BUS2;
 8012d0a:	c4438023 	divu      	r3, r3, r2
	sysclk->wlanclk = W805_PLL_CLK_MHZ/(clk_div.b.WLAN);
 8012d0e:	b022      	st.w      	r1, (r0, 0x8)
	sysclk->apbclk = sysclk->cpuclk / clk_div.b.BUS2;
 8012d10:	b060      	st.w      	r3, (r0, 0x0)
}
 8012d12:	783c      	jmp      	r15

08012d14 <HAL_InitTick>:
	clk_div.w = READ_REG(RCC->CLK_DIV);
 8012d14:	ea234000 	movih      	r3, 16384
 8012d18:	e4630dff 	addi      	r3, r3, 3584


__attribute__((weak)) HAL_StatusTypeDef HAL_InitTick(uint32_t TickPriority)
{
 8012d1c:	6f03      	mov      	r12, r0
	clk_div.w = READ_REG(RCC->CLK_DIV);
 8012d1e:	9364      	ld.w      	r3, (r3, 0x10)
	sysclk->cpuclk = W805_PLL_CLK_MHZ/(clk_div.b.CPU);
 8012d20:	748c      	zextb      	r2, r3
 8012d22:	ea0301e0 	movi      	r3, 480
 8012d26:	c4438043 	divs      	r3, r3, r2
	wm_sys_clk sysclk;
	
	SystemClock_Get(&sysclk);
	SysTick_Config(sysclk.cpuclk * UNIT_MHZ / uwTickFreq);
 8012d2a:	ea02f424 	movi      	r2, 62500
 8012d2e:	c4824902 	rotli      	r2, r2, 4
 8012d32:	7cc8      	mult      	r3, r2
 8012d34:	ea0203e8 	movi      	r2, 1000
 8012d38:	c4438023 	divu      	r3, r3, r2
{
    if ((ticks - 1UL) > CORET_LOAD_RELOAD_Msk) {
        return (1UL);                                                   /* Reload value impossible */
    }

    CORET->LOAD = (uint32_t)(ticks - 1UL);                              /* set reload register */
 8012d3c:	104f      	lrw      	r2, 0xe000e010	// 8012d78 <HAL_InitTick+0x64>
    if ((ticks - 1UL) > CORET_LOAD_RELOAD_Msk) {
 8012d3e:	2b00      	subi      	r3, 1
    CORET->LOAD = (uint32_t)(ticks - 1UL);                              /* set reload register */
 8012d40:	b261      	st.w      	r3, (r2, 0x4)
	clk_div.w = READ_REG(RCC->CLK_DIV);
 8012d42:	3000      	movi      	r0, 0
    CORET->VAL  = 0UL;                                                  /* Load the CORET Counter Value */
    CORET->CTRL = CORET_CTRL_CLKSOURCE_Msk |
 8012d44:	3307      	movi      	r3, 7
    CORET->VAL  = 0UL;                                                  /* Load the CORET Counter Value */
 8012d46:	b202      	st.w      	r0, (r2, 0x8)
    CORET->CTRL = CORET_CTRL_CLKSOURCE_Msk |
 8012d48:	b260      	st.w      	r3, (r2, 0x0)
    VIC->IPR[_IP_IDX(IRQn)] = ((uint32_t)(VIC->IPR[_IP_IDX(IRQn)]  & ~(0xFFUL << _BIT_SHIFT(IRQn))) |
 8012d4a:	104d      	lrw      	r2, 0xe000e100	// 8012d7c <HAL_InitTick+0x68>
                                 (((priority << (8U - __VIC_PRIO_BITS)) & (uint32_t)0xFFUL) << _BIT_SHIFT(IRQn)));
 8012d4c:	c5cc4823 	lsli      	r3, r12, 14
    VIC->IPR[_IP_IDX(IRQn)] = ((uint32_t)(VIC->IPR[_IP_IDX(IRQn)]  & ~(0xFFUL << _BIT_SHIFT(IRQn))) |
 8012d50:	d82220c6 	ld.w      	r1, (r2, 0x318)
 8012d54:	ea0dff00 	movi      	r13, 65280
 8012d58:	6f76      	nor      	r13, r13
 8012d5a:	6874      	and      	r1, r13
                                 (((priority << (8U - __VIC_PRIO_BITS)) & (uint32_t)0xFFUL) << _BIT_SHIFT(IRQn)));
 8012d5c:	c40355e3 	zext      	r3, r3, 15, 0
    VIC->IPR[_IP_IDX(IRQn)] = ((uint32_t)(VIC->IPR[_IP_IDX(IRQn)]  & ~(0xFFUL << _BIT_SHIFT(IRQn))) |
 8012d60:	6cc4      	or      	r3, r1
 8012d62:	dc6220c6 	st.w      	r3, (r2, 0x318)
    VIC->ISER[_IR_IDX(IRQn)] = (uint32_t)(1UL << ((uint32_t)(int32_t)IRQn % 32));
 8012d66:	ea230200 	movih      	r3, 512
 8012d6a:	b260      	st.w      	r3, (r2, 0x0)
    VIC->ISSR[_IR_IDX(IRQn)] = (uint32_t)(1UL << ((uint32_t)(int32_t)IRQn % 32));
 8012d6c:	dc622050 	st.w      	r3, (r2, 0x140)
	HAL_NVIC_SetPriority(SYS_TICK_IRQn, TickPriority);
	HAL_NVIC_EnableIRQ(SYS_TICK_IRQn);
	uwTickPrio = TickPriority;
 8012d70:	1064      	lrw      	r3, 0x20003308	// 8012d80 <HAL_InitTick+0x6c>
 8012d72:	dd832000 	st.w      	r12, (r3, 0x0)
	return HAL_OK;
}
 8012d76:	783c      	jmp      	r15
 8012d78:	e000e010 	.long	0xe000e010
 8012d7c:	e000e100 	.long	0xe000e100
 8012d80:	20003308 	.long	0x20003308

08012d84 <SystemClock_Config>:
{
 8012d84:	14d0      	push      	r15
	if ((clk < 2) || (clk > 240))
 8012d86:	5867      	subi      	r3, r0, 2
 8012d88:	eb0300ee 	cmphsi      	r3, 239
 8012d8c:	0826      	bt      	0x8012dd8	// 8012dd8 <SystemClock_Config+0x54>
    RegValue = READ_REG(RCC->CLK_EN);
 8012d8e:	ea224000 	movih      	r2, 16384
 8012d92:	e4420dff 	addi      	r2, r2, 3584
    RegValue &= ~0x3FFFFF;
 8012d96:	ea21ffc0 	movih      	r1, 65472
    RegValue = READ_REG(RCC->CLK_EN);
 8012d9a:	9260      	ld.w      	r3, (r2, 0x0)
    RegValue &= ~0x3FFFFF;
 8012d9c:	68c4      	and      	r3, r1
    RegValue |= 0x802;
 8012d9e:	ec630802 	ori      	r3, r3, 2050
    WRITE_REG(RCC->CLK_EN, RegValue);
 8012da2:	b260      	st.w      	r3, (r2, 0x0)
	WRITE_REG(RCC->BBP_CLK, 0x0F);
 8012da4:	330f      	movi      	r3, 15
 8012da6:	b262      	st.w      	r3, (r2, 0x8)
	RegValue = READ_REG(RCC->CLK_DIV);
 8012da8:	9264      	ld.w      	r3, (r2, 0x10)
	RegValue &= 0xFF000000;
 8012daa:	ea22ff00 	movih      	r2, 65280
 8012dae:	68c8      	and      	r3, r2
	if(cpuDiv > 12)
 8012db0:	320c      	movi      	r2, 12
 8012db2:	6408      	cmphs      	r2, r0
	RegValue |= 0x80000000;
 8012db4:	3bbf      	bseti      	r3, 31
	if(cpuDiv > 12)
 8012db6:	0c12      	bf      	0x8012dda	// 8012dda <SystemClock_Config+0x56>
		bus2Fac = (wlanDiv*4/cpuDiv)&0xFF;
 8012db8:	c4028022 	divu      	r2, r2, r0
 8012dbc:	4250      	lsli      	r2, r2, 16
 8012dbe:	ea010300 	movi      	r1, 768
 8012dc2:	6c0c      	or      	r0, r3
 8012dc4:	6c08      	or      	r0, r2
	WRITE_REG(RCC->CLK_DIV, RegValue);
 8012dc6:	ea234000 	movih      	r3, 16384
 8012dca:	e4630dff 	addi      	r3, r3, 3584
	RegValue |= (bus2Fac<<16) | (wlanDiv<<8) | cpuDiv;
 8012dce:	6c04      	or      	r0, r1
	WRITE_REG(RCC->CLK_DIV, RegValue);
 8012dd0:	b304      	st.w      	r0, (r3, 0x10)
	HAL_InitTick(TICK_INT_PRIORITY);
 8012dd2:	3007      	movi      	r0, 7
 8012dd4:	e3ffffa0 	bsr      	0x8012d14	// 8012d14 <HAL_InitTick>
}
 8012dd8:	1490      	pop      	r15
		wlanDiv = cpuDiv/4;
 8012dda:	4822      	lsri      	r1, r0, 2
 8012ddc:	4128      	lsli      	r1, r1, 8
 8012dde:	ea220001 	movih      	r2, 1
 8012de2:	07f0      	br      	0x8012dc2	// 8012dc2 <SystemClock_Config+0x3e>

08012de4 <HAL_IncTick>:

__attribute__((weak)) void HAL_IncTick(void)
{
	uwTick += 1;
 8012de4:	1043      	lrw      	r2, 0x20003304	// 8012df0 <HAL_IncTick+0xc>
 8012de6:	9260      	ld.w      	r3, (r2, 0x0)
 8012de8:	2300      	addi      	r3, 1
 8012dea:	b260      	st.w      	r3, (r2, 0x0)
}
 8012dec:	783c      	jmp      	r15
 8012dee:	0000      	.short	0x0000
 8012df0:	20003304 	.long	0x20003304

08012df4 <HAL_GetTick>:

__attribute__((weak)) uint32_t HAL_GetTick(void)
{
	return uwTick;
 8012df4:	1062      	lrw      	r3, 0x20003304	// 8012dfc <HAL_GetTick+0x8>
 8012df6:	9300      	ld.w      	r0, (r3, 0x0)
}
 8012df8:	783c      	jmp      	r15
 8012dfa:	0000      	.short	0x0000
 8012dfc:	20003304 	.long	0x20003304

08012e00 <HAL_Delay>:

__attribute__((weak)) void HAL_Delay(uint32_t Delay)
{
 8012e00:	14d2      	push      	r4-r5, r15
 8012e02:	6d43      	mov      	r5, r0
	uint32_t tickstart = HAL_GetTick();
 8012e04:	e3fffff8 	bsr      	0x8012df4	// 8012df4 <HAL_GetTick>
 8012e08:	6d03      	mov      	r4, r0
	uint32_t wait = Delay;

	while ((HAL_GetTick() - tickstart) < wait)
 8012e0a:	e3fffff5 	bsr      	0x8012df4	// 8012df4 <HAL_GetTick>
 8012e0e:	6012      	subu      	r0, r4
 8012e10:	6540      	cmphs      	r0, r5
 8012e12:	0ffc      	bf      	0x8012e0a	// 8012e0a <HAL_Delay+0xa>
	{
	}
}
 8012e14:	1492      	pop      	r4-r5, r15
	...

08012e18 <HAL_NVIC_SetPriority>:

/* Priority: a value between 0 and 15
 * A lower priority value indicates a higher priority */
void HAL_NVIC_SetPriority(IRQn_Type IRQn, uint32_t Priority)
{   
 8012e18:	c4002822 	bclri      	r2, r0, 0
 8012e1c:	3a81      	bclri      	r2, 1
 8012e1e:	106b      	lrw      	r3, 0xe000e100	// 8012e48 <HAL_NVIC_SetPriority+0x30>
 8012e20:	608c      	addu      	r2, r3
    VIC->IPR[_IP_IDX(IRQn)] = ((uint32_t)(VIC->IPR[_IP_IDX(IRQn)]  & ~(0xFFUL << _BIT_SHIFT(IRQn))) |
 8012e22:	e4002003 	andi      	r0, r0, 3
 8012e26:	4003      	lsli      	r0, r0, 3
 8012e28:	33ff      	movi      	r3, 255
                                 (((priority << (8U - __VIC_PRIO_BITS)) & (uint32_t)0xFFUL) << _BIT_SHIFT(IRQn)));
 8012e2a:	4126      	lsli      	r1, r1, 6
    VIC->IPR[_IP_IDX(IRQn)] = ((uint32_t)(VIC->IPR[_IP_IDX(IRQn)]  & ~(0xFFUL << _BIT_SHIFT(IRQn))) |
 8012e2c:	d98220c0 	ld.w      	r12, (r2, 0x300)
 8012e30:	70c0      	lsl      	r3, r0
                                 (((priority << (8U - __VIC_PRIO_BITS)) & (uint32_t)0xFFUL) << _BIT_SHIFT(IRQn)));
 8012e32:	e42120ff 	andi      	r1, r1, 255
    VIC->IPR[_IP_IDX(IRQn)] = ((uint32_t)(VIC->IPR[_IP_IDX(IRQn)]  & ~(0xFFUL << _BIT_SHIFT(IRQn))) |
 8012e36:	c46c2043 	andn      	r3, r12, r3
                                 (((priority << (8U - __VIC_PRIO_BITS)) & (uint32_t)0xFFUL) << _BIT_SHIFT(IRQn)));
 8012e3a:	c4014020 	lsl      	r0, r1, r0
    VIC->IPR[_IP_IDX(IRQn)] = ((uint32_t)(VIC->IPR[_IP_IDX(IRQn)]  & ~(0xFFUL << _BIT_SHIFT(IRQn))) |
 8012e3e:	6cc0      	or      	r3, r0
 8012e40:	dc6220c0 	st.w      	r3, (r2, 0x300)
	NVIC_SetPriority(IRQn, Priority);
}
 8012e44:	783c      	jmp      	r15
 8012e46:	0000      	.short	0x0000
 8012e48:	e000e100 	.long	0xe000e100

08012e4c <HAL_NVIC_EnableIRQ>:
    VIC->ISER[_IR_IDX(IRQn)] = (uint32_t)(1UL << ((uint32_t)(int32_t)IRQn % 32));
 8012e4c:	e440201f 	andi      	r2, r0, 31
 8012e50:	3301      	movi      	r3, 1
 8012e52:	c4a054c0 	zext      	r0, r0, 6, 5
 8012e56:	70c8      	lsl      	r3, r2
 8012e58:	4002      	lsli      	r0, r0, 2
 8012e5a:	1044      	lrw      	r2, 0xe000e100	// 8012e68 <HAL_NVIC_EnableIRQ+0x1c>
 8012e5c:	6008      	addu      	r0, r2
 8012e5e:	b060      	st.w      	r3, (r0, 0x0)
    VIC->ISSR[_IR_IDX(IRQn)] = (uint32_t)(1UL << ((uint32_t)(int32_t)IRQn % 32));
 8012e60:	dc602050 	st.w      	r3, (r0, 0x140)
	/* Check the parameters */
	assert_param(IS_NVIC_DEVICE_IRQ(IRQn));

	/* Enable interrupt */
	NVIC_EnableIRQ(IRQn);
}
 8012e64:	783c      	jmp      	r15
 8012e66:	0000      	.short	0x0000
 8012e68:	e000e100 	.long	0xe000e100

08012e6c <HAL_GPIO_Init>:
	
	assert_param(IS_GPIO_ALL_INSTANCE(GPIOx));
	assert_param(IS_GPIO_PIN(GPIO_Init->Pin));
	assert_param(IS_GPIO_MODE(GPIO_Init->Mode));

	while (((GPIO_Init->Pin) >>  position) != 0x00)
 8012e6c:	d9812000 	ld.w      	r12, (r1, 0x0)
 8012e70:	e90c0044 	bez      	r12, 0x8012ef8	// 8012ef8 <HAL_GPIO_Init+0x8c>
 8012e74:	3200      	movi      	r2, 0
	{
		ioposition = (0x01 << position);
 8012e76:	ea140001 	movi      	r20, 1
			{
					SET_BIT(GPIOx->PULLUP_EN, ioposition);
					SET_BIT(GPIOx->PULLDOWN_EN, ioposition);
			}
			
			switch (GPIO_Init->Mode)
 8012e7a:	ea96001f 	lrw      	r22, 0x801545c	// 8012ef4 <HAL_GPIO_Init+0x88>
 8012e7e:	0406      	br      	0x8012e8a	// 8012e8a <HAL_GPIO_Init+0x1e>
			{
				SET_BIT(GPIOx->IE, ioposition);
			}
		}
		
		position++;
 8012e80:	2200      	addi      	r2, 1
	while (((GPIO_Init->Pin) >>  position) != 0x00)
 8012e82:	c44c4043 	lsr      	r3, r12, r2
 8012e86:	e9030039 	bez      	r3, 0x8012ef8	// 8012ef8 <HAL_GPIO_Init+0x8c>
		ioposition = (0x01 << position);
 8012e8a:	c4544023 	lsl      	r3, r20, r2
		iocurrent = (uint32_t)(GPIO_Init->Pin) & ioposition;
 8012e8e:	c583202d 	and      	r13, r3, r12
		if (iocurrent == ioposition)
 8012e92:	674e      	cmpne      	r3, r13
 8012e94:	0bf6      	bt      	0x8012e80	// 8012e80 <HAL_GPIO_Init+0x14>
			switch (GPIO_Init->Mode)
 8012e96:	da612001 	ld.w      	r19, (r1, 0x4)
			__AFIO_REMAP_SET_OPT5(GPIOx, ioposition);
 8012e9a:	da402004 	ld.w      	r18, (r0, 0x10)
 8012e9e:	c463248d 	nor      	r13, r3, r3
			switch (GPIO_Init->Mode)
 8012ea2:	eb530002 	cmpnei      	r19, 2
			__AFIO_REMAP_SET_OPT5(GPIOx, ioposition);
 8012ea6:	c5b22032 	and      	r18, r18, r13
 8012eaa:	de402004 	st.w      	r18, (r0, 0x10)
			switch (GPIO_Init->Mode)
 8012eae:	0c44      	bf      	0x8012f36	// 8012f36 <HAL_GPIO_Init+0xca>
 8012eb0:	eb130002 	cmphsi      	r19, 3
 8012eb4:	0823      	bt      	0x8012efa	// 8012efa <HAL_GPIO_Init+0x8e>
 8012eb6:	eb530001 	cmpnei      	r19, 1
 8012eba:	08a3      	bt      	0x8013000	// 8013000 <HAL_GPIO_Init+0x194>
 8012ebc:	ea120000 	movi      	r18, 0
 8012ec0:	e6521085 	subi      	r18, r18, 134
					CLEAR_BIT(GPIOx->DIR, ioposition);
 8012ec4:	daa02002 	ld.w      	r21, (r0, 0x8)
 8012ec8:	c6ad2035 	and      	r21, r13, r21
 8012ecc:	dea02002 	st.w      	r21, (r0, 0x8)
			if (GPIO_Init->Pull == GPIO_NOPULL)
 8012ed0:	daa12002 	ld.w      	r21, (r1, 0x8)
 8012ed4:	eb550012 	cmpnei      	r21, 18
 8012ed8:	0c1b      	bf      	0x8012f0e	// 8012f0e <HAL_GPIO_Init+0xa2>
			else if (GPIO_Init->Pull == GPIO_PULLUP)
 8012eda:	eb550013 	cmpnei      	r21, 19
 8012ede:	0c37      	bf      	0x8012f4c	// 8012f4c <HAL_GPIO_Init+0xe0>
			else if(GPIO_Init->Pull == GPIO_PULLDOWN)
 8012ee0:	eb550014 	cmpnei      	r21, 20
 8012ee4:	0c91      	bf      	0x8013006	// 8013006 <HAL_GPIO_Init+0x19a>
			switch (GPIO_Init->Mode)
 8012ee6:	eb120004 	cmphsi      	r18, 5
 8012eea:	0821      	bt      	0x8012f2c	// 8012f2c <HAL_GPIO_Init+0xc0>
 8012eec:	d2560892 	ldr.w      	r18, (r22, r18 << 2)
 8012ef0:	e8d20000 	jmp      	r18
 8012ef4:	0801545c 	.long	0x0801545c
	}
}
 8012ef8:	783c      	jmp      	r15
			switch (GPIO_Init->Mode)
 8012efa:	e6531086 	subi      	r18, r19, 135
 8012efe:	eb120004 	cmphsi      	r18, 5
 8012f02:	0fe1      	bf      	0x8012ec4	// 8012ec4 <HAL_GPIO_Init+0x58>
			if (GPIO_Init->Pull == GPIO_NOPULL)
 8012f04:	daa12002 	ld.w      	r21, (r1, 0x8)
 8012f08:	eb550012 	cmpnei      	r21, 18
 8012f0c:	0be7      	bt      	0x8012eda	// 8012eda <HAL_GPIO_Init+0x6e>
					SET_BIT(GPIOx->PULLUP_EN, ioposition);
 8012f0e:	daa02003 	ld.w      	r21, (r0, 0xc)
 8012f12:	c6a32435 	or      	r21, r3, r21
 8012f16:	dea02003 	st.w      	r21, (r0, 0xc)
					CLEAR_BIT(GPIOx->PULLDOWN_EN, ioposition);
 8012f1a:	daa02007 	ld.w      	r21, (r0, 0x1c)
			switch (GPIO_Init->Mode)
 8012f1e:	eb120004 	cmphsi      	r18, 5
					CLEAR_BIT(GPIOx->PULLDOWN_EN, ioposition);
 8012f22:	c6ad2035 	and      	r21, r13, r21
 8012f26:	dea02007 	st.w      	r21, (r0, 0x1c)
			switch (GPIO_Init->Mode)
 8012f2a:	0fe1      	bf      	0x8012eec	// 8012eec <HAL_GPIO_Init+0x80>
			if ((GPIO_Init->Mode & EXTI_MODE) == EXTI_MODE)
 8012f2c:	e6732080 	andi      	r19, r19, 128
 8012f30:	e913ffa8 	bez      	r19, 0x8012e80	// 8012e80 <HAL_GPIO_Init+0x14>
 8012f34:	0423      	br      	0x8012f7a	// 8012f7a <HAL_GPIO_Init+0x10e>
					SET_BIT(GPIOx->DIR, ioposition);
 8012f36:	da402002 	ld.w      	r18, (r0, 0x8)
 8012f3a:	c6432432 	or      	r18, r3, r18
 8012f3e:	de402002 	st.w      	r18, (r0, 0x8)
 8012f42:	ea120000 	movi      	r18, 0
 8012f46:	e6521084 	subi      	r18, r18, 133
					break;
 8012f4a:	07c3      	br      	0x8012ed0	// 8012ed0 <HAL_GPIO_Init+0x64>
					CLEAR_BIT(GPIOx->PULLUP_EN, ioposition);
 8012f4c:	daa02003 	ld.w      	r21, (r0, 0xc)
 8012f50:	c6ad2035 	and      	r21, r13, r21
 8012f54:	dea02003 	st.w      	r21, (r0, 0xc)
					CLEAR_BIT(GPIOx->PULLDOWN_EN, ioposition);
 8012f58:	daa02007 	ld.w      	r21, (r0, 0x1c)
 8012f5c:	c6ad2035 	and      	r21, r13, r21
 8012f60:	dea02007 	st.w      	r21, (r0, 0x1c)
 8012f64:	07c1      	br      	0x8012ee6	// 8012ee6 <HAL_GPIO_Init+0x7a>
					SET_BIT(GPIOx->IS, ioposition);
 8012f66:	d9a02008 	ld.w      	r13, (r0, 0x20)
 8012f6a:	6f4c      	or      	r13, r3
 8012f6c:	dda02008 	st.w      	r13, (r0, 0x20)
					SET_BIT(GPIOx->IEV, ioposition);
 8012f70:	d9a0200a 	ld.w      	r13, (r0, 0x28)
 8012f74:	6f4c      	or      	r13, r3
 8012f76:	dda0200a 	st.w      	r13, (r0, 0x28)
				SET_BIT(GPIOx->IE, ioposition);
 8012f7a:	d9a0200b 	ld.w      	r13, (r0, 0x2c)
 8012f7e:	6cf4      	or      	r3, r13
 8012f80:	b06b      	st.w      	r3, (r0, 0x2c)
 8012f82:	077f      	br      	0x8012e80	// 8012e80 <HAL_GPIO_Init+0x14>
					CLEAR_BIT(GPIOx->IS, ioposition);
 8012f84:	da402008 	ld.w      	r18, (r0, 0x20)
 8012f88:	c64d202d 	and      	r13, r13, r18
 8012f8c:	dda02008 	st.w      	r13, (r0, 0x20)
					SET_BIT(GPIOx->IBE, ioposition);
 8012f90:	d9a02009 	ld.w      	r13, (r0, 0x24)
 8012f94:	6f4c      	or      	r13, r3
 8012f96:	dda02009 	st.w      	r13, (r0, 0x24)
					break;
 8012f9a:	07f0      	br      	0x8012f7a	// 8012f7a <HAL_GPIO_Init+0x10e>
					CLEAR_BIT(GPIOx->IS, ioposition);
 8012f9c:	da402008 	ld.w      	r18, (r0, 0x20)
 8012fa0:	c64d2032 	and      	r18, r13, r18
 8012fa4:	de402008 	st.w      	r18, (r0, 0x20)
					CLEAR_BIT(GPIOx->IBE, ioposition);
 8012fa8:	da402009 	ld.w      	r18, (r0, 0x24)
 8012fac:	c64d2032 	and      	r18, r13, r18
 8012fb0:	de402009 	st.w      	r18, (r0, 0x24)
					CLEAR_BIT(GPIOx->IEV, ioposition);
 8012fb4:	da40200a 	ld.w      	r18, (r0, 0x28)
 8012fb8:	c64d202d 	and      	r13, r13, r18
 8012fbc:	dda0200a 	st.w      	r13, (r0, 0x28)
					break;
 8012fc0:	07dd      	br      	0x8012f7a	// 8012f7a <HAL_GPIO_Init+0x10e>
					CLEAR_BIT(GPIOx->IS, ioposition);
 8012fc2:	da402008 	ld.w      	r18, (r0, 0x20)
 8012fc6:	c64d2032 	and      	r18, r13, r18
 8012fca:	de402008 	st.w      	r18, (r0, 0x20)
					CLEAR_BIT(GPIOx->IBE, ioposition);
 8012fce:	da402009 	ld.w      	r18, (r0, 0x24)
 8012fd2:	c64d202d 	and      	r13, r13, r18
 8012fd6:	dda02009 	st.w      	r13, (r0, 0x24)
					SET_BIT(GPIOx->IEV, ioposition);
 8012fda:	d9a0200a 	ld.w      	r13, (r0, 0x28)
 8012fde:	6f4c      	or      	r13, r3
 8012fe0:	dda0200a 	st.w      	r13, (r0, 0x28)
					break;
 8012fe4:	07cb      	br      	0x8012f7a	// 8012f7a <HAL_GPIO_Init+0x10e>
					SET_BIT(GPIOx->IS, ioposition);
 8012fe6:	da402008 	ld.w      	r18, (r0, 0x20)
 8012fea:	c6432432 	or      	r18, r3, r18
 8012fee:	de402008 	st.w      	r18, (r0, 0x20)
					CLEAR_BIT(GPIOx->IEV, ioposition);
 8012ff2:	da40200a 	ld.w      	r18, (r0, 0x28)
 8012ff6:	c64d202d 	and      	r13, r13, r18
 8012ffa:	dda0200a 	st.w      	r13, (r0, 0x28)
					break;
 8012ffe:	07be      	br      	0x8012f7a	// 8012f7a <HAL_GPIO_Init+0x10e>
 8013000:	e6531086 	subi      	r18, r19, 135
 8013004:	0766      	br      	0x8012ed0	// 8012ed0 <HAL_GPIO_Init+0x64>
					SET_BIT(GPIOx->PULLUP_EN, ioposition);
 8013006:	daa02003 	ld.w      	r21, (r0, 0xc)
 801300a:	c6a32435 	or      	r21, r3, r21
 801300e:	dea02003 	st.w      	r21, (r0, 0xc)
					SET_BIT(GPIOx->PULLDOWN_EN, ioposition);
 8013012:	daa02007 	ld.w      	r21, (r0, 0x1c)
 8013016:	c6a32435 	or      	r21, r3, r21
 801301a:	dea02007 	st.w      	r21, (r0, 0x1c)
 801301e:	0764      	br      	0x8012ee6	// 8012ee6 <HAL_GPIO_Init+0x7a>

08013020 <HAL_GPIO_ReadPin>:
{
	GPIO_PinState bitstatus;
	
	assert_param(IS_GPIO_PIN(GPIO_Pin));

	if ((GPIOx->DATA & GPIO_Pin) != GPIO_PIN_RESET)
 8013020:	9060      	ld.w      	r3, (r0, 0x0)
 8013022:	684c      	and      	r1, r3
 8013024:	3940      	cmpnei      	r1, 0
	else
	{
		bitstatus = GPIO_PIN_RESET;
	}
	return bitstatus;
}
 8013026:	c4000500 	mvc      	r0
 801302a:	783c      	jmp      	r15

0801302c <HAL_GPIO_WritePin>:
	uint32_t data_en;
	
	assert_param(IS_GPIO_PIN(GPIO_Pin));
	assert_param(IS_GPIO_PIN_ACTION(PinState));

	data_en = READ_REG(GPIOx->DATA_B_EN);
 801302c:	d9802001 	ld.w      	r12, (r0, 0x4)
	SET_BIT(GPIOx->DATA_B_EN, GPIO_Pin);
 8013030:	9061      	ld.w      	r3, (r0, 0x4)
 8013032:	6cc4      	or      	r3, r1
 8013034:	b061      	st.w      	r3, (r0, 0x4)
	if (PinState != GPIO_PIN_RESET)
	{
		SET_BIT(GPIOx->DATA, GPIO_Pin);
 8013036:	9060      	ld.w      	r3, (r0, 0x0)
	if (PinState != GPIO_PIN_RESET)
 8013038:	e9220008 	bnez      	r2, 0x8013048	// 8013048 <HAL_GPIO_WritePin+0x1c>
	}
	else
	{
		CLEAR_BIT(GPIOx->DATA, GPIO_Pin);
 801303c:	c4232041 	andn      	r1, r3, r1
 8013040:	b020      	st.w      	r1, (r0, 0x0)
	}
	WRITE_REG(GPIOx->DATA_B_EN, data_en);
 8013042:	dd802001 	st.w      	r12, (r0, 0x4)
}
 8013046:	783c      	jmp      	r15
		SET_BIT(GPIOx->DATA, GPIO_Pin);
 8013048:	6c4c      	or      	r1, r3
 801304a:	b020      	st.w      	r1, (r0, 0x0)
	WRITE_REG(GPIOx->DATA_B_EN, data_en);
 801304c:	dd802001 	st.w      	r12, (r0, 0x4)
}
 8013050:	783c      	jmp      	r15
	...

08013054 <HAL_GPIO_EXTI_IRQHandler>:
	}
	WRITE_REG(GPIOx->DATA_B_EN, data_en);
}

void HAL_GPIO_EXTI_IRQHandler(GPIO_TypeDef *GPIOx, uint32_t GPIO_Pin)
{
 8013054:	14d0      	push      	r15
	if ((GPIOx->MIS & GPIO_Pin) != 0)
 8013056:	906d      	ld.w      	r3, (r0, 0x34)
 8013058:	68c4      	and      	r3, r1
{
 801305a:	6c87      	mov      	r2, r1
	if ((GPIOx->MIS & GPIO_Pin) != 0)
 801305c:	e9230003 	bnez      	r3, 0x8013062	// 8013062 <HAL_GPIO_EXTI_IRQHandler+0xe>
	{
		SET_BIT(GPIOx->IC, GPIO_Pin);
		HAL_GPIO_EXTI_Callback(GPIOx, GPIO_Pin);
	}
}
 8013060:	1490      	pop      	r15
		SET_BIT(GPIOx->IC, GPIO_Pin);
 8013062:	906e      	ld.w      	r3, (r0, 0x38)
 8013064:	6c8c      	or      	r2, r3
 8013066:	b04e      	st.w      	r2, (r0, 0x38)
		HAL_GPIO_EXTI_Callback(GPIOx, GPIO_Pin);
 8013068:	e3fffa46 	bsr      	0x80124f4	// 80124f4 <HAL_GPIO_EXTI_Callback>
}
 801306c:	1490      	pop      	r15
	...

08013070 <HAL_Init>:
#include "wm_hal.h"

HAL_StatusTypeDef HAL_Init(void)
{
 8013070:	14d0      	push      	r15
	HAL_MspInit();
 8013072:	e3fff8b5 	bsr      	0x80121dc	// 80121dc <HAL_MspInit>
	return HAL_OK;
}
 8013076:	3000      	movi      	r0, 0
 8013078:	1490      	pop      	r15
	...

0801307c <I2C_Start>:
		__NOP();
	}
}

static void I2C_Start(I2C_HandleTypeDef *hi2c)
{	
 801307c:	14d1      	push      	r4, r15
 801307e:	6d03      	mov      	r4, r0
	I2C_SCL_H(hi2c);
 8013080:	9021      	ld.w      	r1, (r0, 0x4)
 8013082:	3201      	movi      	r2, 1
 8013084:	9000      	ld.w      	r0, (r0, 0x0)
 8013086:	e3ffffd3 	bsr      	0x801302c	// 801302c <HAL_GPIO_WritePin>
	I2C_SDA_H(hi2c);
 801308a:	3201      	movi      	r2, 1
 801308c:	9423      	ld.w      	r1, (r4, 0xc)
 801308e:	9402      	ld.w      	r0, (r4, 0x8)
 8013090:	e3ffffce 	bsr      	0x801302c	// 801302c <HAL_GPIO_WritePin>
 8013094:	332d      	movi      	r3, 45
 8013096:	6c03      	mov      	r0, r0
 8013098:	e823ffff 	bnezad      	r3, 0x8013096	// 8013096 <I2C_Start+0x1a>
	delay_us();
	
	I2C_SDA_L(hi2c);
 801309c:	3200      	movi      	r2, 0
 801309e:	9423      	ld.w      	r1, (r4, 0xc)
 80130a0:	9402      	ld.w      	r0, (r4, 0x8)
 80130a2:	e3ffffc5 	bsr      	0x801302c	// 801302c <HAL_GPIO_WritePin>
 80130a6:	332d      	movi      	r3, 45
 80130a8:	6c03      	mov      	r0, r0
 80130aa:	e823ffff 	bnezad      	r3, 0x80130a8	// 80130a8 <I2C_Start+0x2c>
	delay_us();
	
	I2C_SCL_L(hi2c);
 80130ae:	3200      	movi      	r2, 0
 80130b0:	9421      	ld.w      	r1, (r4, 0x4)
 80130b2:	9400      	ld.w      	r0, (r4, 0x0)
 80130b4:	e3ffffbc 	bsr      	0x801302c	// 801302c <HAL_GPIO_WritePin>
 80130b8:	332d      	movi      	r3, 45
 80130ba:	6c03      	mov      	r0, r0
 80130bc:	e823ffff 	bnezad      	r3, 0x80130ba	// 80130ba <I2C_Start+0x3e>
	delay_us();
}
 80130c0:	1491      	pop      	r4, r15
	...

080130c4 <I2C_Write_Byte>:

	return ack;
}

static void I2C_Write_Byte(I2C_HandleTypeDef *hi2c, uint8_t data)
{
 80130c4:	14d3      	push      	r4-r6, r15
 80130c6:	6d43      	mov      	r5, r0
 80130c8:	6d07      	mov      	r4, r1
 80130ca:	3608      	movi      	r6, 8
	int i;
	
	for (i = 0; i < 8; i ++)
	{
		if (data & 0x80)
 80130cc:	74d2      	sextb      	r3, r4
 80130ce:	e983001f 	blz      	r3, 0x801310c	// 801310c <I2C_Write_Byte+0x48>
		{
			I2C_SDA_H(hi2c);
		}
		else
		{
			I2C_SDA_L(hi2c);
 80130d2:	3200      	movi      	r2, 0
 80130d4:	9523      	ld.w      	r1, (r5, 0xc)
 80130d6:	9502      	ld.w      	r0, (r5, 0x8)
 80130d8:	e3ffffaa 	bsr      	0x801302c	// 801302c <HAL_GPIO_WritePin>
		}
		I2C_SCL_H(hi2c);
 80130dc:	3201      	movi      	r2, 1
 80130de:	9521      	ld.w      	r1, (r5, 0x4)
 80130e0:	9500      	ld.w      	r0, (r5, 0x0)
 80130e2:	e3ffffa5 	bsr      	0x801302c	// 801302c <HAL_GPIO_WritePin>
 80130e6:	332d      	movi      	r3, 45
 80130e8:	6c03      	mov      	r0, r0
 80130ea:	e823ffff 	bnezad      	r3, 0x80130e8	// 80130e8 <I2C_Write_Byte+0x24>
		delay_us();
		I2C_SCL_L(hi2c);
 80130ee:	3200      	movi      	r2, 0
 80130f0:	9521      	ld.w      	r1, (r5, 0x4)
 80130f2:	9500      	ld.w      	r0, (r5, 0x0)
 80130f4:	e3ffff9c 	bsr      	0x801302c	// 801302c <HAL_GPIO_WritePin>
 80130f8:	332d      	movi      	r3, 45
 80130fa:	6c03      	mov      	r0, r0
 80130fc:	e823ffff 	bnezad      	r3, 0x80130fa	// 80130fa <I2C_Write_Byte+0x36>
		delay_us();
		data <<= 1;
 8013100:	6110      	addu      	r4, r4
 8013102:	2e00      	subi      	r6, 1
 8013104:	7510      	zextb      	r4, r4
	for (i = 0; i < 8; i ++)
 8013106:	e926ffe3 	bnez      	r6, 0x80130cc	// 80130cc <I2C_Write_Byte+0x8>
	}
}
 801310a:	1493      	pop      	r4-r6, r15
			I2C_SDA_H(hi2c);
 801310c:	3201      	movi      	r2, 1
 801310e:	9523      	ld.w      	r1, (r5, 0xc)
 8013110:	9502      	ld.w      	r0, (r5, 0x8)
 8013112:	e3ffff8d 	bsr      	0x801302c	// 801302c <HAL_GPIO_WritePin>
 8013116:	07e3      	br      	0x80130dc	// 80130dc <I2C_Write_Byte+0x18>

08013118 <I2C_Stop>:
{
 8013118:	14d1      	push      	r4, r15
 801311a:	6d03      	mov      	r4, r0
	I2C_SDA_L(hi2c);
 801311c:	9023      	ld.w      	r1, (r0, 0xc)
 801311e:	3200      	movi      	r2, 0
 8013120:	9002      	ld.w      	r0, (r0, 0x8)
 8013122:	e3ffff85 	bsr      	0x801302c	// 801302c <HAL_GPIO_WritePin>
	I2C_SCL_H(hi2c);
 8013126:	3201      	movi      	r2, 1
 8013128:	9421      	ld.w      	r1, (r4, 0x4)
 801312a:	9400      	ld.w      	r0, (r4, 0x0)
 801312c:	e3ffff80 	bsr      	0x801302c	// 801302c <HAL_GPIO_WritePin>
 8013130:	332d      	movi      	r3, 45
 8013132:	6c03      	mov      	r0, r0
 8013134:	e823ffff 	bnezad      	r3, 0x8013132	// 8013132 <I2C_Stop+0x1a>
	I2C_SDA_H(hi2c);
 8013138:	3201      	movi      	r2, 1
 801313a:	9423      	ld.w      	r1, (r4, 0xc)
 801313c:	9402      	ld.w      	r0, (r4, 0x8)
 801313e:	e3ffff77 	bsr      	0x801302c	// 801302c <HAL_GPIO_WritePin>
 8013142:	332d      	movi      	r3, 45
 8013144:	6c03      	mov      	r0, r0
 8013146:	e823ffff 	bnezad      	r3, 0x8013144	// 8013144 <I2C_Stop+0x2c>
}
 801314a:	1491      	pop      	r4, r15

0801314c <I2C_Wait_Ack>:
{
 801314c:	14d2      	push      	r4-r5, r15
	I2C_SDA_H(hi2c);
 801314e:	9023      	ld.w      	r1, (r0, 0xc)
{
 8013150:	6d03      	mov      	r4, r0
	I2C_SDA_H(hi2c);
 8013152:	3201      	movi      	r2, 1
 8013154:	9002      	ld.w      	r0, (r0, 0x8)
 8013156:	e3ffff6b 	bsr      	0x801302c	// 801302c <HAL_GPIO_WritePin>
 801315a:	332d      	movi      	r3, 45
 801315c:	6c03      	mov      	r0, r0
 801315e:	e823ffff 	bnezad      	r3, 0x801315c	// 801315c <I2C_Wait_Ack+0x10>
	I2C_SDA_IN(hi2c);
 8013162:	9442      	ld.w      	r2, (r4, 0x8)
 8013164:	9463      	ld.w      	r3, (r4, 0xc)
 8013166:	9222      	ld.w      	r1, (r2, 0x8)
 8013168:	c4612043 	andn      	r3, r1, r3
 801316c:	b262      	st.w      	r3, (r2, 0x8)
	I2C_SCL_H(hi2c);
 801316e:	9421      	ld.w      	r1, (r4, 0x4)
 8013170:	3201      	movi      	r2, 1
 8013172:	9400      	ld.w      	r0, (r4, 0x0)
 8013174:	e3ffff5c 	bsr      	0x801302c	// 801302c <HAL_GPIO_WritePin>
 8013178:	332d      	movi      	r3, 45
 801317a:	6c03      	mov      	r0, r0
 801317c:	e823ffff 	bnezad      	r3, 0x801317a	// 801317a <I2C_Wait_Ack+0x2e>
	ack = I2C_SDA_GET(hi2c);
 8013180:	9423      	ld.w      	r1, (r4, 0xc)
 8013182:	9402      	ld.w      	r0, (r4, 0x8)
 8013184:	e3ffff4e 	bsr      	0x8013020	// 8013020 <HAL_GPIO_ReadPin>
 8013188:	7540      	zextb      	r5, r0
	I2C_SCL_L(hi2c);
 801318a:	3200      	movi      	r2, 0
 801318c:	9421      	ld.w      	r1, (r4, 0x4)
 801318e:	9400      	ld.w      	r0, (r4, 0x0)
 8013190:	e3ffff4e 	bsr      	0x801302c	// 801302c <HAL_GPIO_WritePin>
 8013194:	332d      	movi      	r3, 45
 8013196:	6c03      	mov      	r0, r0
 8013198:	e823ffff 	bnezad      	r3, 0x8013196	// 8013196 <I2C_Wait_Ack+0x4a>
	I2C_SDA_OUT(hi2c);
 801319c:	9442      	ld.w      	r2, (r4, 0x8)
 801319e:	9423      	ld.w      	r1, (r4, 0xc)
 80131a0:	9262      	ld.w      	r3, (r2, 0x8)
 80131a2:	6cc4      	or      	r3, r1
}
 80131a4:	6c17      	mov      	r0, r5
	I2C_SDA_OUT(hi2c);
 80131a6:	b262      	st.w      	r3, (r2, 0x8)
}
 80131a8:	1492      	pop      	r4-r5, r15
	...

080131ac <HAL_I2C_Init>:

	return temp;
}

HAL_StatusTypeDef HAL_I2C_Init(I2C_HandleTypeDef *hi2c)
{
 80131ac:	14d3      	push      	r4-r6, r15
 80131ae:	1423      	subi      	r14, r14, 12
 80131b0:	6d03      	mov      	r4, r0
	GPIO_InitTypeDef GPIO_InitStruct = {0};
	
	GPIO_InitStruct.Pin = hi2c->SCL_Pin;
 80131b2:	9061      	ld.w      	r3, (r0, 0x4)
	GPIO_InitStruct.Mode = GPIO_MODE_OUTPUT;
 80131b4:	3602      	movi      	r6, 2
	GPIO_InitStruct.Pull = GPIO_PULLUP;//GPIO_PULLUP;
 80131b6:	3513      	movi      	r5, 19
	HAL_GPIO_Init(hi2c->SCL_Port, &GPIO_InitStruct);
 80131b8:	6c7b      	mov      	r1, r14
 80131ba:	9000      	ld.w      	r0, (r0, 0x0)
	GPIO_InitStruct.Pin = hi2c->SCL_Pin;
 80131bc:	b860      	st.w      	r3, (r14, 0x0)
	GPIO_InitStruct.Mode = GPIO_MODE_OUTPUT;
 80131be:	b8c1      	st.w      	r6, (r14, 0x4)
	GPIO_InitStruct.Pull = GPIO_PULLUP;//GPIO_PULLUP;
 80131c0:	b8a2      	st.w      	r5, (r14, 0x8)
	HAL_GPIO_Init(hi2c->SCL_Port, &GPIO_InitStruct);
 80131c2:	e3fffe55 	bsr      	0x8012e6c	// 8012e6c <HAL_GPIO_Init>
	
	GPIO_InitStruct.Pin = hi2c->SDA_Pin;
 80131c6:	9463      	ld.w      	r3, (r4, 0xc)
	GPIO_InitStruct.Mode = GPIO_MODE_OUTPUT;
	GPIO_InitStruct.Pull = GPIO_PULLUP;//GPIO_PULLUP;//GPIO_NOPULL;
	HAL_GPIO_Init(hi2c->SDA_Port, &GPIO_InitStruct);
 80131c8:	6c7b      	mov      	r1, r14
 80131ca:	9402      	ld.w      	r0, (r4, 0x8)
	GPIO_InitStruct.Pin = hi2c->SDA_Pin;
 80131cc:	b860      	st.w      	r3, (r14, 0x0)
	GPIO_InitStruct.Mode = GPIO_MODE_OUTPUT;
 80131ce:	b8c1      	st.w      	r6, (r14, 0x4)
	GPIO_InitStruct.Pull = GPIO_PULLUP;//GPIO_PULLUP;//GPIO_NOPULL;
 80131d0:	b8a2      	st.w      	r5, (r14, 0x8)
	HAL_GPIO_Init(hi2c->SDA_Port, &GPIO_InitStruct);
 80131d2:	e3fffe4d 	bsr      	0x8012e6c	// 8012e6c <HAL_GPIO_Init>
	
	HAL_GPIO_WritePin(hi2c->SCL_Port, hi2c->SCL_Pin, GPIO_PIN_SET);
 80131d6:	9421      	ld.w      	r1, (r4, 0x4)
 80131d8:	9400      	ld.w      	r0, (r4, 0x0)
 80131da:	3201      	movi      	r2, 1
 80131dc:	e3ffff28 	bsr      	0x801302c	// 801302c <HAL_GPIO_WritePin>
	HAL_GPIO_WritePin(hi2c->SDA_Port, hi2c->SDA_Pin, GPIO_PIN_SET);
 80131e0:	9402      	ld.w      	r0, (r4, 0x8)
 80131e2:	3201      	movi      	r2, 1
 80131e4:	9423      	ld.w      	r1, (r4, 0xc)
 80131e6:	e3ffff23 	bsr      	0x801302c	// 801302c <HAL_GPIO_WritePin>
	
	return HAL_OK;
}
 80131ea:	3000      	movi      	r0, 0
 80131ec:	1403      	addi      	r14, r14, 12
 80131ee:	1493      	pop      	r4-r6, r15

080131f0 <HAL_I2C_Write>:
	
	return HAL_OK;
}

HAL_StatusTypeDef HAL_I2C_Write(I2C_HandleTypeDef *hi2c, uint8_t DevAddress, uint8_t MemAddress, uint8_t *pData, uint16_t Size)
{
 80131f0:	14d5      	push      	r4-r8, r15
 80131f2:	6d43      	mov      	r5, r0
 80131f4:	6dc7      	mov      	r7, r1
 80131f6:	6e0b      	mov      	r8, r2
 80131f8:	6d0f      	mov      	r4, r3
 80131fa:	d8ce100c 	ld.h      	r6, (r14, 0x18)
	uint32_t i, ret = HAL_ERROR;
	
	I2C_Start(hi2c);
 80131fe:	e3ffff3f 	bsr      	0x801307c	// 801307c <I2C_Start>
	I2C_Write_Byte(hi2c, (DevAddress & 0xFE));
 8013202:	6c17      	mov      	r0, r5
 8013204:	e42720fe 	andi      	r1, r7, 254
 8013208:	e3ffff5e 	bsr      	0x80130c4	// 80130c4 <I2C_Write_Byte>
	if (I2C_Wait_Ack(hi2c))
 801320c:	6c17      	mov      	r0, r5
 801320e:	e3ffff9f 	bsr      	0x801314c	// 801314c <I2C_Wait_Ack>
 8013212:	e9000008 	bez      	r0, 0x8013222	// 8013222 <HAL_I2C_Write+0x32>
			goto OUT;
		}
	}
	ret = HAL_OK;
OUT:
	I2C_Stop(hi2c);
 8013216:	6c17      	mov      	r0, r5
	uint32_t i, ret = HAL_ERROR;
 8013218:	3401      	movi      	r4, 1
	I2C_Stop(hi2c);
 801321a:	e3ffff7f 	bsr      	0x8013118	// 8013118 <I2C_Stop>
	return ret;
}
 801321e:	6c13      	mov      	r0, r4
 8013220:	1495      	pop      	r4-r8, r15
	I2C_Write_Byte(hi2c, MemAddress);
 8013222:	6c17      	mov      	r0, r5
 8013224:	6c63      	mov      	r1, r8
 8013226:	e3ffff4f 	bsr      	0x80130c4	// 80130c4 <I2C_Write_Byte>
	if (I2C_Wait_Ack(hi2c))
 801322a:	6c17      	mov      	r0, r5
 801322c:	e3ffff90 	bsr      	0x801314c	// 801314c <I2C_Wait_Ack>
 8013230:	e920fff3 	bnez      	r0, 0x8013216	// 8013216 <HAL_I2C_Write+0x26>
	for (i = 0; i < Size; i++)
 8013234:	e906000f 	bez      	r6, 0x8013252	// 8013252 <HAL_I2C_Write+0x62>
 8013238:	6190      	addu      	r6, r4
		I2C_Write_Byte(hi2c, pData[i]);
 801323a:	6c17      	mov      	r0, r5
 801323c:	8420      	ld.b      	r1, (r4, 0x0)
 801323e:	e3ffff43 	bsr      	0x80130c4	// 80130c4 <I2C_Write_Byte>
		if (I2C_Wait_Ack(hi2c))
 8013242:	6c17      	mov      	r0, r5
 8013244:	e3ffff84 	bsr      	0x801314c	// 801314c <I2C_Wait_Ack>
 8013248:	e920ffe7 	bnez      	r0, 0x8013216	// 8013216 <HAL_I2C_Write+0x26>
 801324c:	2400      	addi      	r4, 1
	for (i = 0; i < Size; i++)
 801324e:	6592      	cmpne      	r4, r6
 8013250:	0bf5      	bt      	0x801323a	// 801323a <HAL_I2C_Write+0x4a>
	I2C_Stop(hi2c);
 8013252:	6c17      	mov      	r0, r5
	ret = HAL_OK;
 8013254:	3400      	movi      	r4, 0
	I2C_Stop(hi2c);
 8013256:	e3ffff61 	bsr      	0x8013118	// 8013118 <I2C_Stop>
}
 801325a:	6c13      	mov      	r0, r4
 801325c:	1495      	pop      	r4-r8, r15
	...

08013260 <HAL_I2C_Read>:

HAL_StatusTypeDef HAL_I2C_Read(I2C_HandleTypeDef *hi2c, uint8_t DevAddress, uint8_t MemAddress, uint8_t *pData, uint16_t Size)
{
 8013260:	14d7      	push      	r4-r10, r15
 8013262:	6d03      	mov      	r4, r0
 8013264:	6d47      	mov      	r5, r1
 8013266:	6d8b      	mov      	r6, r2
 8013268:	6dcf      	mov      	r7, r3
 801326a:	d90e1010 	ld.h      	r8, (r14, 0x20)
	uint32_t i, ret = HAL_ERROR;
	
	I2C_Start(hi2c);
 801326e:	e3ffff07 	bsr      	0x801307c	// 801307c <I2C_Start>
	I2C_Write_Byte(hi2c, (DevAddress & 0xFE));
 8013272:	6c13      	mov      	r0, r4
 8013274:	e42520fe 	andi      	r1, r5, 254
 8013278:	e3ffff26 	bsr      	0x80130c4	// 80130c4 <I2C_Write_Byte>
	if (I2C_Wait_Ack(hi2c))
 801327c:	6c13      	mov      	r0, r4
 801327e:	e3ffff67 	bsr      	0x801314c	// 801314c <I2C_Wait_Ack>
 8013282:	e900000d 	bez      	r0, 0x801329c	// 801329c <HAL_I2C_Read+0x3c>
 8013286:	9462      	ld.w      	r3, (r4, 0x8)
 8013288:	9443      	ld.w      	r2, (r4, 0xc)
	uint32_t i, ret = HAL_ERROR;
 801328a:	3501      	movi      	r5, 1
			I2C_Ack(hi2c);
		}
	}
	ret = HAL_OK;
OUT:
	I2C_SDA_OUT(hi2c);
 801328c:	9322      	ld.w      	r1, (r3, 0x8)
 801328e:	6c84      	or      	r2, r1
	I2C_Stop(hi2c);
 8013290:	6c13      	mov      	r0, r4
	I2C_SDA_OUT(hi2c);
 8013292:	b342      	st.w      	r2, (r3, 0x8)
	I2C_Stop(hi2c);
 8013294:	e3ffff42 	bsr      	0x8013118	// 8013118 <I2C_Stop>
	return ret;
}
 8013298:	6c17      	mov      	r0, r5
 801329a:	1497      	pop      	r4-r10, r15
	I2C_Write_Byte(hi2c, MemAddress);
 801329c:	6c13      	mov      	r0, r4
 801329e:	6c5b      	mov      	r1, r6
 80132a0:	e3ffff12 	bsr      	0x80130c4	// 80130c4 <I2C_Write_Byte>
	if (I2C_Wait_Ack(hi2c))
 80132a4:	6c13      	mov      	r0, r4
 80132a6:	e3ffff53 	bsr      	0x801314c	// 801314c <I2C_Wait_Ack>
 80132aa:	e920ffee 	bnez      	r0, 0x8013286	// 8013286 <HAL_I2C_Read+0x26>
	I2C_Start(hi2c);
 80132ae:	6c13      	mov      	r0, r4
 80132b0:	e3fffee6 	bsr      	0x801307c	// 801307c <I2C_Start>
	I2C_Write_Byte(hi2c, (DevAddress | 0x01));
 80132b4:	ec250001 	ori      	r1, r5, 1
 80132b8:	6c13      	mov      	r0, r4
 80132ba:	e3ffff05 	bsr      	0x80130c4	// 80130c4 <I2C_Write_Byte>
	if (I2C_Wait_Ack(hi2c))
 80132be:	6c13      	mov      	r0, r4
 80132c0:	e3ffff46 	bsr      	0x801314c	// 801314c <I2C_Wait_Ack>
 80132c4:	9462      	ld.w      	r3, (r4, 0x8)
 80132c6:	e920006e 	bnez      	r0, 0x80133a2	// 80133a2 <HAL_I2C_Read+0x142>
	I2C_SDA_IN(hi2c);
 80132ca:	9322      	ld.w      	r1, (r3, 0x8)
 80132cc:	9443      	ld.w      	r2, (r4, 0xc)
 80132ce:	6849      	andn      	r1, r2
 80132d0:	b322      	st.w      	r1, (r3, 0x8)
	for (i = 0; i < Size; i++)
 80132d2:	6d63      	mov      	r5, r8
 80132d4:	e908ffdc 	bez      	r8, 0x801328c	// 801328c <HAL_I2C_Read+0x2c>
 80132d8:	e5281000 	subi      	r9, r8, 1
 80132dc:	6d83      	mov      	r6, r0
	uint8_t i, temp = 0;
 80132de:	3500      	movi      	r5, 0
 80132e0:	ea0a0008 	movi      	r10, 8
		I2C_SCL_H(hi2c);
 80132e4:	3201      	movi      	r2, 1
 80132e6:	9421      	ld.w      	r1, (r4, 0x4)
 80132e8:	9400      	ld.w      	r0, (r4, 0x0)
 80132ea:	e3fffea1 	bsr      	0x801302c	// 801302c <HAL_GPIO_WritePin>
 80132ee:	332d      	movi      	r3, 45
 80132f0:	6c03      	mov      	r0, r0
 80132f2:	e823ffff 	bnezad      	r3, 0x80132f0	// 80132f0 <HAL_I2C_Read+0x90>
		temp <<= 1;
 80132f6:	6154      	addu      	r5, r5
		if (I2C_SDA_GET(hi2c))
 80132f8:	9423      	ld.w      	r1, (r4, 0xc)
 80132fa:	9402      	ld.w      	r0, (r4, 0x8)
		temp <<= 1;
 80132fc:	7554      	zextb      	r5, r5
		if (I2C_SDA_GET(hi2c))
 80132fe:	e3fffe91 	bsr      	0x8013020	// 8013020 <HAL_GPIO_ReadPin>
 8013302:	e9000004 	bez      	r0, 0x801330a	// 801330a <HAL_I2C_Read+0xaa>
			temp |= 0x01;
 8013306:	eca50001 	ori      	r5, r5, 1
		I2C_SCL_L(hi2c);
 801330a:	3200      	movi      	r2, 0
 801330c:	9421      	ld.w      	r1, (r4, 0x4)
 801330e:	9400      	ld.w      	r0, (r4, 0x0)
 8013310:	e3fffe8e 	bsr      	0x801302c	// 801302c <HAL_GPIO_WritePin>
 8013314:	332d      	movi      	r3, 45
 8013316:	6c03      	mov      	r0, r0
 8013318:	e823ffff 	bnezad      	r3, 0x8013316	// 8013316 <HAL_I2C_Read+0xb6>
 801331c:	e54a1000 	subi      	r10, r10, 1
 8013320:	76a8      	zextb      	r10, r10
	for (i = 0; i < 8; i++)
 8013322:	e92affe1 	bnez      	r10, 0x80132e4	// 80132e4 <HAL_I2C_Read+0x84>
		pData[i] = I2C_Read_Byte(hi2c);
 8013326:	a7a0      	st.b      	r5, (r7, 0x0)
	I2C_SDA_OUT(hi2c);
 8013328:	9402      	ld.w      	r0, (r4, 0x8)
